
224Lab2230pm.elf:     file format elf32-littlenios2
224Lab2230pm.elf
architecture: nios2, flags 0x00000112:
EXEC_P, HAS_SYMS, D_PAGED
start address 0x00800184

Program Header:
    LOAD off    0x00001000 vaddr 0x00800000 paddr 0x00800000 align 2**12
         filesz 0x00000020 memsz 0x00000020 flags r-x
    LOAD off    0x00001020 vaddr 0x00800020 paddr 0x00800020 align 2**12
         filesz 0x000105d8 memsz 0x000105d8 flags r-x
    LOAD off    0x000115f8 vaddr 0x008105f8 paddr 0x008122b4 align 2**12
         filesz 0x00001cbc memsz 0x00001cbc flags rw-
    LOAD off    0x00013f70 vaddr 0x00813f70 paddr 0x00813f70 align 2**12
         filesz 0x00000000 memsz 0x00003ad8 flags rw-

Sections:
Idx Name          Size      VMA       LMA       File off  Algn
  0 .entry        00000020  00800000  00800000  00001000  2**5
                  CONTENTS, ALLOC, LOAD, READONLY, CODE
  1 .exceptions   00000164  00800020  00800020  00001020  2**2
                  CONTENTS, ALLOC, LOAD, READONLY, CODE
  2 .text         0000fbb0  00800184  00800184  00001184  2**2
                  CONTENTS, ALLOC, LOAD, READONLY, CODE
  3 .rodata       000008c4  0080fd34  0080fd34  00010d34  2**2
                  CONTENTS, ALLOC, LOAD, READONLY, DATA
  4 .rwdata       00001cbc  008105f8  008122b4  000115f8  2**2
                  CONTENTS, ALLOC, LOAD, DATA, SMALL_DATA
  5 .bss          00003ad8  00813f70  00813f70  00013f70  2**2
                  ALLOC, SMALL_DATA
  6 .comment      00000023  00000000  00000000  000132b4  2**0
                  CONTENTS, READONLY
  7 .debug_aranges 00000850  00000000  00000000  000132d8  2**3
                  CONTENTS, READONLY, DEBUGGING
  8 .debug_pubnames 00000c87  00000000  00000000  00013b28  2**0
                  CONTENTS, READONLY, DEBUGGING
  9 .debug_info   000190c6  00000000  00000000  000147af  2**0
                  CONTENTS, READONLY, DEBUGGING
 10 .debug_abbrev 0000590a  00000000  00000000  0002d875  2**0
                  CONTENTS, READONLY, DEBUGGING
 11 .debug_line   0000dbdd  00000000  00000000  0003317f  2**0
                  CONTENTS, READONLY, DEBUGGING
 12 .debug_frame  00000fb8  00000000  00000000  00040d5c  2**2
                  CONTENTS, READONLY, DEBUGGING
 13 .debug_str    00002170  00000000  00000000  00041d14  2**0
                  CONTENTS, READONLY, DEBUGGING
 14 .debug_loc    0000b83a  00000000  00000000  00043e84  2**0
                  CONTENTS, READONLY, DEBUGGING
 15 .debug_alt_sim_info 00000050  00000000  00000000  0004f6c0  2**2
                  CONTENTS, READONLY, DEBUGGING
 16 .debug_ranges 000009e0  00000000  00000000  0004f710  2**3
                  CONTENTS, READONLY, DEBUGGING
 17 .thread_model 00000003  00000000  00000000  00053e9e  2**0
                  CONTENTS, READONLY
 18 .cpu          00000005  00000000  00000000  00053ea1  2**0
                  CONTENTS, READONLY
 19 .simulation_enabled 00000001  00000000  00000000  00053ea6  2**0
                  CONTENTS, READONLY
 20 .sysid_hash   00000004  00000000  00000000  00053ea7  2**0
                  CONTENTS, READONLY
 21 .sysid_base   00000004  00000000  00000000  00053eab  2**0
                  CONTENTS, READONLY
 22 .sysid_time   00000004  00000000  00000000  00053eaf  2**0
                  CONTENTS, READONLY
 23 .stderr_dev   0000000b  00000000  00000000  00053eb3  2**0
                  CONTENTS, READONLY
 24 .stdin_dev    0000000b  00000000  00000000  00053ebe  2**0
                  CONTENTS, READONLY
 25 .stdout_dev   0000000b  00000000  00000000  00053ec9  2**0
                  CONTENTS, READONLY
 26 .sopc_system_name 0000000d  00000000  00000000  00053ed4  2**0
                  CONTENTS, READONLY
 27 .quartus_project_dir 00000020  00000000  00000000  00053ee1  2**0
                  CONTENTS, READONLY
 28 .jdi          00004111  00000000  00000000  00053f01  2**0
                  CONTENTS, READONLY
SYMBOL TABLE:
00800000 l    d  .entry	00000000 .entry
00800020 l    d  .exceptions	00000000 .exceptions
00800184 l    d  .text	00000000 .text
0080fd34 l    d  .rodata	00000000 .rodata
008105f8 l    d  .rwdata	00000000 .rwdata
00813f70 l    d  .bss	00000000 .bss
00000000 l    d  .comment	00000000 .comment
00000000 l    d  .debug_aranges	00000000 .debug_aranges
00000000 l    d  .debug_pubnames	00000000 .debug_pubnames
00000000 l    d  .debug_info	00000000 .debug_info
00000000 l    d  .debug_abbrev	00000000 .debug_abbrev
00000000 l    d  .debug_line	00000000 .debug_line
00000000 l    d  .debug_frame	00000000 .debug_frame
00000000 l    d  .debug_str	00000000 .debug_str
00000000 l    d  .debug_loc	00000000 .debug_loc
00000000 l    d  .debug_alt_sim_info	00000000 .debug_alt_sim_info
00000000 l    d  .debug_ranges	00000000 .debug_ranges
008001bc l       .text	00000000 alt_after_alt_main
00000000 l    df *ABS*	00000000 alt_irq_handler.c
00000000 l    df *ABS*	00000000 LCD.c
00000000 l    df *ABS*	00000000 Open_I2C.c
00000000 l    df *ABS*	00000000 main.c
00801650 l     F .text	00000180 button_ISR
00000000 l    df *ABS*	00000000 wm8731.c
00000000 l    df *ABS*	00000000 s_ceil.c
00000000 l    df *ABS*	00000000 s_floor.c
00000000 l    df *ABS*	00000000 libgcc2.c
00000000 l    df *ABS*	00000000 dp-bit.c
008039f0 l     F .text	00000410 _fpadd_parts
00000000 l    df *ABS*	00000000 dp-bit.c
00000000 l    df *ABS*	00000000 dp-bit.c
00000000 l    df *ABS*	00000000 dp-bit.c
00000000 l    df *ABS*	00000000 dp-bit.c
00000000 l    df *ABS*	00000000 dp-bit.c
00000000 l    df *ABS*	00000000 dp-bit.c
00000000 l    df *ABS*	00000000 lib2-divmod.c
00804368 l     F .text	0000007c udivmodsi4
00000000 l    df *ABS*	00000000 lib2-divtable.c
00000000 l    df *ABS*	00000000 lib2-mul.c
00000000 l    df *ABS*	00000000 libgcc2.c
00000000 l    df *ABS*	00000000 dp-bit.c
00000000 l    df *ABS*	00000000 dp-bit.c
00000000 l    df *ABS*	00000000 dp-bit.c
00000000 l    df *ABS*	00000000 libgcc2.c
00000000 l    df *ABS*	00000000 memset.c
00000000 l    df *ABS*	00000000 printf.c
00000000 l    df *ABS*	00000000 puts.c
00000000 l    df *ABS*	00000000 strcmp.c
00000000 l    df *ABS*	00000000 strcpy.c
00000000 l    df *ABS*	00000000 strlen.c
00000000 l    df *ABS*	00000000 vfprintf.c
00804e00 l     F .text	00000058 __sprint_r
008101ba l     O .rodata	00000010 blanks.3452
008101aa l     O .rodata	00000010 zeroes.3453
00000000 l    df *ABS*	00000000 wsetup.c
00000000 l    df *ABS*	00000000 dtoa.c
00806e7c l     F .text	00000244 quorem
00000000 l    df *ABS*	00000000 fflush.c
00000000 l    df *ABS*	00000000 findfp.c
008088a4 l     F .text	00000058 std
008089b0 l     F .text	00000008 __fp_lock
008089b8 l     F .text	00000008 __fp_unlock
00000000 l    df *ABS*	00000000 mallocr.c
00000000 l    df *ABS*	00000000 fvwrite.c
00000000 l    df *ABS*	00000000 fwalk.c
00000000 l    df *ABS*	00000000 impure.c
008106f8 l     O .rwdata	00000400 impure_data
00000000 l    df *ABS*	00000000 locale.c
00812278 l     O .rwdata	00000004 charset
008101ec l     O .rodata	00000030 lconv
00000000 l    df *ABS*	00000000 makebuf.c
00000000 l    df *ABS*	00000000 mallocr.c
00000000 l    df *ABS*	00000000 memchr.c
00000000 l    df *ABS*	00000000 memcpy.c
00000000 l    df *ABS*	00000000 memmove.c
00000000 l    df *ABS*	00000000 mprec.c
00810334 l     O .rodata	0000000c p05.2458
00000000 l    df *ABS*	00000000 mallocr.c
00000000 l    df *ABS*	00000000 s_isinfd.c
00000000 l    df *ABS*	00000000 s_isnand.c
00000000 l    df *ABS*	00000000 sbrkr.c
00000000 l    df *ABS*	00000000 stdio.c
00000000 l    df *ABS*	00000000 writer.c
00000000 l    df *ABS*	00000000 mallocr.c
00000000 l    df *ABS*	00000000 closer.c
00000000 l    df *ABS*	00000000 fclose.c
00000000 l    df *ABS*	00000000 fstatr.c
00000000 l    df *ABS*	00000000 int_errno.c
00000000 l    df *ABS*	00000000 isattyr.c
00000000 l    df *ABS*	00000000 lseekr.c
00000000 l    df *ABS*	00000000 readr.c
00000000 l    df *ABS*	00000000 libgcc2.c
00000000 l    df *ABS*	00000000 libgcc2.c
00000000 l    df *ABS*	00000000 dp-bit.c
00000000 l    df *ABS*	00000000 dp-bit.c
00000000 l    df *ABS*	00000000 dp-bit.c
00000000 l    df *ABS*	00000000 dp-bit.c
00000000 l    df *ABS*	00000000 dp-bit.c
00000000 l    df *ABS*	00000000 libgcc2.c
00000000 l    df *ABS*	00000000 alt_close.c
00000000 l    df *ABS*	00000000 alt_dev.c
0080d5dc l     F .text	00000008 alt_dev_null_write
00000000 l    df *ABS*	00000000 alt_errno.c
00000000 l    df *ABS*	00000000 alt_fstat.c
00000000 l    df *ABS*	00000000 alt_irq_register.c
00000000 l    df *ABS*	00000000 alt_irq_vars.c
00000000 l    df *ABS*	00000000 alt_isatty.c
00000000 l    df *ABS*	00000000 alt_load.c
00000000 l    df *ABS*	00000000 alt_lseek.c
00000000 l    df *ABS*	00000000 alt_main.c
00000000 l    df *ABS*	00000000 alt_malloc_lock.c
00000000 l    df *ABS*	00000000 alt_read.c
00000000 l    df *ABS*	00000000 alt_release_fd.c
00000000 l    df *ABS*	00000000 alt_sbrk.c
008122a0 l     O .rwdata	00000004 heap_end
00000000 l    df *ABS*	00000000 alt_usleep.c
00000000 l    df *ABS*	00000000 alt_write.c
00000000 l    df *ABS*	00000000 alt_sys_init.c
008110b4 l     O .rwdata	00001060 jtag_uart_0
00812114 l     O .rwdata	00000120 lcd_display
00000000 l    df *ABS*	00000000 altera_avalon_jtag_uart_fd.c
00000000 l    df *ABS*	00000000 altera_avalon_jtag_uart_init.c
0080de20 l     F .text	00000058 altera_avalon_jtag_uart_timeout
0080def8 l     F .text	00000108 altera_avalon_jtag_uart_irq
00000000 l    df *ABS*	00000000 altera_avalon_jtag_uart_ioctl.c
00000000 l    df *ABS*	00000000 altera_avalon_jtag_uart_read.c
00000000 l    df *ABS*	00000000 altera_avalon_jtag_uart_write.c
00000000 l    df *ABS*	00000000 altera_avalon_lcd_16207.c
0080e81c l     F .text	00000078 alt_lcd_16207_timeout
0080e5dc l     F .text	00000240 lcd_repaint_screen
008122a4 l     O .rwdata	00000004 colstart
00000000 l    df *ABS*	00000000 altera_avalon_lcd_16207_fd.c
00000000 l    df *ABS*	00000000 altera_avalon_timer_sc.c
0080ef84 l     F .text	0000003c alt_avalon_timer_sc_irq
00000000 l    df *ABS*	00000000 alt_alarm_start.c
00000000 l    df *ABS*	00000000 alt_busy_sleep.c
00000000 l    df *ABS*	00000000 alt_dcache_flush_all.c
00000000 l    df *ABS*	00000000 alt_dev_llist_insert.c
00000000 l    df *ABS*	00000000 alt_do_ctors.c
00000000 l    df *ABS*	00000000 alt_do_dtors.c
00000000 l    df *ABS*	00000000 alt_icache_flush_all.c
00000000 l    df *ABS*	00000000 alt_iic.c
00000000 l    df *ABS*	00000000 alt_iic_isr_register.c
00000000 l    df *ABS*	00000000 alt_io_redirect.c
00000000 l    df *ABS*	00000000 alt_open.c
00000000 l    df *ABS*	00000000 alt_tick.c
00000000 l    df *ABS*	00000000 altera_nios2_irq.c
00000000 l    df *ABS*	00000000 alt_find_dev.c
00000000 l    df *ABS*	00000000 alt_find_file.c
00000000 l    df *ABS*	00000000 alt_get_fd.c
00000000 l    df *ABS*	00000000 alt_icache_flush.c
00000000 l    df *ABS*	00000000 atexit.c
00000000 l    df *ABS*	00000000 ctype_.c
00810475 l     O .rodata	00000180 _ctype_b
00000000 l    df *ABS*	00000000 exit.c
00000000 l    df *ABS*	00000000 memcmp.c
00000000 l    df *ABS*	00000000 __atexit.c
00000000 l    df *ABS*	00000000 __call_atexit.c
0080fafc l     F .text	00000004 register_fini
00000000 l    df *ABS*	00000000 alt_exit.c
0080a5fc g     F .text	00000094 _mprec_log10
0080a6e8 g     F .text	00000088 __any_on
0080bde4 g     F .text	00000070 _isatty_r
0081030c g     O .rodata	00000028 __mprec_tinytens
0080d964 g     F .text	00000060 alt_main
00804d00 g     F .text	0000008c strcpy
00813f7c g     O .bss	00000004 fileNum
00813f8c g     O .bss	00000001 BS_BootSig_32
00813f90 g     O .bss	00000004 FAT32ClusEntryVal
00804b90 g     F .text	000000a0 _puts_r
008177b8 g     O .bss	00000100 alt_irq
00813f94 g     O .bss	00000004 tmp
0080be54 g     F .text	00000078 _lseek_r
00813f98 g     O .bss	00000001 MBR_Bootable
00801d24 g     F .text	00000228 playdouble
008122b4 g       *ABS*	00000000 __flash_rwdata_start
0080d22c g     F .text	00000088 __eqdf2
00812266 g     O .rwdata	00000005 acmd51
00817a48 g       *ABS*	00000000 __alt_heap_start
0080106c g     F .text	000001a4 get_rel_sector
00804b18 g     F .text	00000044 printf
00813f99 g     O .bss	00000008 BS_FilSysType_16
00813fa1 g     O .bss	00000001 BPB_SecPerClus
0080b958 g     F .text	00000068 __sseek
0080890c g     F .text	000000a4 __sinit
00809618 g     F .text	00000084 _setlocale_r
00808a0c g     F .text	0000009c __sfmoreglue
0080d9c8 g     F .text	00000004 __malloc_unlock
00800738 g     F .text	00000014 I2C_Read_Ctrl
0080a110 g     F .text	000000e0 memmove
008089fc g     F .text	00000010 _cleanup
0080a770 g     F .text	000000bc _Balloc
00813fa4 g     O .bss	00000004 BPB_RootEntCnt
008002b8 g     F .text	00000104 LCD_Test
00803ef4 g     F .text	00000088 __gtdf2
00000000  w      *UND*	00000000 __errno
00800000 g     F .entry	0000001c __reset
00813fa8 g     O .bss	00000004 FATOffset
00802d68 g     F .text	0000049c SD_card_init
00803514 g     F .text	00000214 ceil
00800020 g       *ABS*	00000000 __flash_exceptions_start
0080bd70 g     F .text	00000074 _fstat_r
0081407c g     O .bss	00000004 errno
00803728 g     F .text	00000224 floor
00800df4 g     F .text	00000278 SD_read_lba
00814088 g     O .bss	00000004 alt_argv
0081a234 g       *ABS*	00000000 _gp
0080dbbc g     F .text	00000004 usleep
00813fac g     O .bss	00000004 BPB_RootClus
00813f88 g     O .bss	00000004 pb_mode
00810f34 g     O .rwdata	00000180 alt_fd_list
00813fb0 g     O .bss	00000004 BPB_ExtFlags
00800c60 g     F .text	00000194 info_bs
008140c0 g     O .bss	00000014 response_buffer
00801abc g     F .text	00000268 playhalf
0080f72c g     F .text	00000094 alt_find_dev
0080a070 g     F .text	000000a0 memcpy
00813fb4 g     O .bss	00000004 FirstRootDirSecNum
008089f0 g     F .text	0000000c _cleanup_r
00804004 g     F .text	000000f8 __floatsidf
0080f330 g     F .text	0000014c alt_io_redirect
0080d33c g     F .text	00000088 __ltdf2
00813f80 g     O .bss	00000004 next_bp
0080fd34 g       *ABS*	00000000 __DTOR_END__
00804c30 g     F .text	00000014 puts
00813fb8 g     O .bss	00000001 BS_DrvNum_32
0080f724 g     F .text	00000008 altera_nios2_irq_init
0080a54c g     F .text	000000b0 __ratio
00800a64 g     F .text	000001fc response_R
008009e8 g     F .text	00000050 Ncc
0080e088 g     F .text	0000016c altera_avalon_jtag_uart_read
00000000  w      *UND*	00000000 malloc
00804b5c g     F .text	00000034 _printf_r
008044a4 g     F .text	00000008 __udivsi3
0080d750 g     F .text	000000a4 isatty
00813fbc g     O .bss	00000004 BPB_SecPerTrk
0081021c g     O .rodata	000000c8 __mprec_tens
00813fc0 g     O .bss	00000004 BPB_HiddSec
008095f4 g     F .text	00000008 __locale_charset
0080394c g     F .text	000000a4 __fixunsdfsi
0080f8d0 g     F .text	00000038 alt_icache_flush
00814070 g     O .bss	00000004 __malloc_top_pad
00812274 g     O .rwdata	00000004 __mb_cur_max
008095fc g     F .text	0000000c _localeconv_r
0080aed4 g     F .text	0000003c __i2b
00808fd8 g     F .text	0000049c __sfvwrite_r
00813fc4 g     O .bss	00000008 BS_FilSysType_32
00813fcc g     O .bss	00000001 MBR_Partition_Type
0080b8e0 g     F .text	00000070 _sbrk_r
0080becc g     F .text	00000078 _read_r
00810af8 g     O .rwdata	0000000c __lc_ctype
00812294 g     O .rwdata	00000004 alt_max_fd
00804880 g     F .text	00000138 __unpack_d
0080bc4c g     F .text	00000110 _fclose_r
00812252 g     O .rwdata	00000005 cmd16
00808870 g     F .text	00000034 fflush
00814074 g     O .bss	00000004 __malloc_max_sbrked_mem
00813fcd g     O .bss	00000003 BS_JmpBoot
00813fd0 g     O .bss	00000004 FirstDataSector
0080d690 g     F .text	000000c0 alt_irq_register
00800894 g     F .text	0000003c isEOF
00803e80 g     F .text	00000074 __adddf3
00813fd4 g     O .bss	00000001 BPB_NumFATs
0080a42c g     F .text	00000120 __b2d
0080c5b0 g     F .text	00000660 __umoddi3
00813fd8 g     O .bss	00000004 BPB_FATSz16
0080d8a8 g     F .text	000000bc lseek
00813fdc g     O .bss	00000004 tmp2
00812270 g     O .rwdata	00000004 _global_impure_ptr
00813fe0 g     O .bss	00000004 FAT16ClusEntryVal
0080b27c g     F .text	000005f4 _realloc_r
00817a48 g       *ABS*	00000000 __bss_end
0080f2a8 g     F .text	00000088 alt_iic_isr_register
0080f63c g     F .text	000000e8 alt_tick
0080bf44 g     F .text	0000066c __udivdi3
008102e4 g     O .rodata	00000028 __mprec_bigtens
0080b15c g     F .text	00000120 __s2b
008041d4 g     F .text	00000194 __floatunsidf
00812239 g     O .rwdata	00000005 cmd55
0080a34c g     F .text	00000060 __mcmp
00813fe4 g     O .bss	00000004 ThisFATEntOffset
00812234 g     O .rwdata	00000005 cmd0
008122b0 g     O .rwdata	00000004 __ctype_ptr
008089d8 g     F .text	00000018 __fp_lock_all
0080f20c g     F .text	00000018 alt_ic_irq_enabled
0080f608 g     F .text	00000034 alt_alarm_stop
00812261 g     O .rwdata	00000005 acmd41
00814080 g     O .bss	00000004 alt_irq_active
00800838 g     F .text	0000002c I2C_Init
008000ec g     F .exceptions	00000098 alt_irq_handler
00810f0c g     O .rwdata	00000028 alt_dev_null
008004f8 g     F .text	00000204 LCD_Display
008022c0 g     F .text	00000268 playreverse
008003bc g     F .text	0000013c LCD_File_Buffering
0080f0e8 g     F .text	00000004 alt_dcache_flush_all
0080a218 g     F .text	00000070 __hi0bits
008040fc g     F .text	000000d8 __fixdfsi
008007b4 g     F .text	00000020 I2C_Write_Period
00813fe8 g     O .bss	00000004 BS_VOLID_16
008122b4 g       *ABS*	00000000 __ram_rwdata_end
0081228c g     O .rwdata	00000008 alt_dev_list
0080dbc0 g     F .text	0000013c write
008105f8 g       *ABS*	00000000 __ram_rodata_end
0080d5e4 g     F .text	000000ac fstat
0080b03c g     F .text	00000120 __pow5mult
00814064 g     O .bss	00000004 __nlocale_changed
00801210 g     F .text	00000440 search_for_filetype
008044ac g     F .text	00000008 __umodsi3
00817a48 g       *ABS*	00000000 end
00813fec g     O .bss	00000004 BPB_BytsPerSec
0080e894 g     F .text	00000690 altera_avalon_lcd_16207_write
0081224d g     O .rwdata	00000005 cmd9
00813ff0 g     O .bss	00000004 BPB_FATSz32
0080de78 g     F .text	00000080 altera_avalon_jtag_uart_init
0080fd30 g       *ABS*	00000000 __CTOR_LIST__
01000000 g       *ABS*	00000000 __alt_stack_pointer
0080ef34 g     F .text	00000050 alt_avalon_timer_sc_init
008044ec g     F .text	00000080 __clzsi2
0080e1f4 g     F .text	00000184 altera_avalon_jtag_uart_write
008088fc g     F .text	00000004 __sfp_lock_acquire
00809f8c g     F .text	000000e4 memchr
00804e58 g     F .text	00001ec4 ___vfprintf_internal_r
00808cc4 g     F .text	00000314 _free_r
008140d4 g     O .bss	0000001c df
008140f0 g     O .bss	0000000b BS_VOLLab_32
0080fb00 g     F .text	000001b0 __call_exitprocs
00814068 g     O .bss	00000004 __mlocale_changed
00812280 g     O .rwdata	00000004 __malloc_sbrk_base
00800184 g     F .text	0000003c _start
00814090 g     O .bss	00000004 _alt_tick_rate
0080ab34 g     F .text	0000014c __lshift
00802c60 g     F .text	00000108 init_mbr
00814094 g     O .bss	00000004 _alt_nticks
00813ff4 g     O .bss	00000004 FATSz
0080d9cc g     F .text	00000140 read
0080dd1c g     F .text	00000080 alt_sys_init
00813ff8 g     O .bss	00000004 BPB_BkBootSec
0080f9c8 g     F .text	00000134 __register_exitproc
00813ffc g     O .bss	00000004 FAT12ClusEntryVal
00814000 g     O .bss	00000001 BS_BootSig_16
0080074c g     F .text	0000002c I2C_Read_Period
00812257 g     O .rwdata	00000005 cmd17
0080ac80 g     F .text	00000254 __multiply
0080ddd8 g     F .text	00000048 altera_avalon_jtag_uart_close
008044b4 g     F .text	00000038 __mulsi3
008105f8 g       *ABS*	00000000 __ram_rwdata_start
0080fd34 g       *ABS*	00000000 __ram_rodata_start
00814098 g     O .bss	00000028 __malloc_current_mallinfo
0080a82c g     F .text	0000017c __d2b
0080ddc8 g     F .text	00000010 altera_avalon_jtag_uart_read_fd
0080f870 g     F .text	00000060 alt_get_fd
008007a0 g     F .text	00000014 I2C_Write_Ctrl
0080f054 g     F .text	00000094 alt_busy_sleep
008049b8 g     F .text	000000c8 __fpcmp_parts_d
00814004 g     O .bss	00000004 FATClusEntryVal
0080bbdc g     F .text	00000070 _close_r
00800710 g     F .text	00000014 I2C_Read_Status
0080f954 g     F .text	00000074 memcmp
0080dda8 g     F .text	00000010 altera_avalon_jtag_uart_close_fd
00817a48 g       *ABS*	00000000 __alt_stack_base
0080dd9c g     F .text	0000000c altera_avalon_jtag_uart_ioctl_fd
00801f4c g     F .text	00000374 playdelay
00806d40 g     F .text	0000013c __swsetup_r
0080cfd4 g     F .text	00000258 __divdf3
00808aa8 g     F .text	000000f0 __sfp
0080a690 g     F .text	00000058 __copybits
00800724 g     F .text	00000014 I2C_Read_RX
00810b04 g     O .rwdata	00000408 __malloc_av_
00808908 g     F .text	00000004 __sinit_lock_release
0080cc10 g     F .text	000003c4 __muldf3
0080ba3c g     F .text	00000060 __sread
0080f7c0 g     F .text	000000b0 alt_find_file
0080f0ec g     F .text	0000007c alt_dev_llist_insert
0080d9c4 g     F .text	00000004 __malloc_lock
0080db68 g     F .text	00000054 sbrk
00808674 g     F .text	000001fc _fflush_r
0080bb14 g     F .text	000000c8 _calloc_r
00814008 g     O .bss	00000004 BPB_TotSec16
0081400c g     O .bss	00000005 cmd_buffer
00814011 g     O .bss	00000001 read_status
008105f8 g     O .rwdata	00000100 __divsi3_table
00813f70 g       *ABS*	00000000 __bss_start
0081225c g     O .rwdata	00000005 acmd6
008001d8 g     F .text	0000007c LCD_Init
0081223e g     O .rwdata	00000005 cmd2
00804a80 g     F .text	00000098 memset
00814012 g     O .bss	00000008 BS_OEMName
00803204 g     F .text	000001b0 main
00802528 g     F .text	00000210 playnormal
0081408c g     O .bss	00000004 alt_envp
00814078 g     O .bss	00000004 __malloc_max_total_mem
0080ddb8 g     F .text	00000010 altera_avalon_jtag_uart_write_fd
0080e378 g     F .text	00000264 altera_avalon_lcd_16207_init
008001c0 g     F .text	00000018 LCD_Line2
0080b950 g     F .text	00000008 __sclose
01000000 g       *ABS*	00000000 __alt_heap_limit
0080bd5c g     F .text	00000014 fclose
008178b8 g     O .bss	00000190 _atexit0
008070c0 g     F .text	000015b4 _dtoa_r
0080984c g     F .text	00000740 _malloc_r
0081401a g     O .bss	00000006 FATType
00814020 g     O .bss	00000004 ThisFATSecNum
00812298 g     O .rwdata	00000004 alt_errno
0080953c g     F .text	000000b8 _fwalk
00813f74 g     O .bss	00000004 file_number
008140fc g     O .bss	000036b0 chain
008043e4 g     F .text	00000060 __divsi3
00814024 g     O .bss	00000004 MBR_Partition_Len
00810038 g     O .rodata	00000014 __thenan_df
00808b98 g     F .text	0000012c _malloc_trim_r
0080fd34 g       *ABS*	00000000 __CTOR_END__
00804c44 g     F .text	000000bc strcmp
0080fd34 g       *ABS*	00000000 __flash_rodata_start
0080fd34 g       *ABS*	00000000 __DTOR_LIST__
00814028 g     O .bss	00000003 MBR_End_End
0080d2b4 g     F .text	00000088 __nedf2
0080dcfc g     F .text	00000020 alt_irq_init
00800254 g     F .text	00000064 LCD_Show_Text
0080db0c g     F .text	0000005c alt_release_fd
00812243 g     O .rwdata	00000005 cmd3
0081004c g     O .rodata	00000100 __clz_tab
0081406c g     O .bss	00000004 _PathLocale
0080078c g     F .text	00000014 I2C_Write_TX
0080f908 g     F .text	00000014 atexit
0080ba9c g     F .text	00000078 _write_r
0080969c g     F .text	0000001c setlocale
0081226c g     O .rwdata	00000004 _impure_ptr
00814084 g     O .bss	00000004 alt_argc
0080f1b4 g     F .text	0000004c _do_dtors
008007d4 g     F .text	00000064 I2C_Send
0081402c g     O .bss	00000004 BPB_TotSec32
00800000 g       *ABS*	00000000 __alt_mem_sdram_0
00800020 g       .exceptions	00000000 alt_irq_entry
0080a3ac g     F .text	00000080 __ulp
0080b870 g     F .text	00000040 __isinfd
008089c0 g     F .text	00000018 __fp_unlock_all
0080ef24 g     F .text	00000010 altera_avalon_lcd_16207_write_fd
00812284 g     O .rwdata	00000008 alt_fs_list
00814030 g     O .bss	00000004 DataSec
00802738 g     F .text	00000528 init_bs
00814034 g     O .bss	00000004 TotSec
00814038 g     O .bss	00000004 CountofClusters
008008d0 g     F .text	00000118 send_cmd
00800020 g       *ABS*	00000000 __ram_exceptions_start
00809608 g     F .text	00000010 localeconv
00813f70 g     O .bss	00000004 file_count
008017d0 g     F .text	0000020c CalcFATSecAndOffset
0080f2a4 g     F .text	00000004 alt_ic_isr_register
008122b4 g       *ABS*	00000000 _edata
00817a48 g       *ABS*	00000000 _end
0081403c g     O .bss	00000004 RootDirSectors
00800184 g       *ABS*	00000000 __ram_exceptions_end
0080e000 g     F .text	00000088 altera_avalon_jtag_uart_ioctl
0080f264 g     F .text	00000040 alt_ic_irq_disable
00814040 g     O .bss	00000004 BPB_RsvdSecCnt
00814044 g     O .bss	00000002 RCA
0080b9c0 g     F .text	0000007c __swrite
0081227c g     O .rwdata	00000004 __malloc_trim_threshold
0080f91c g     F .text	00000038 exit
00809474 g     F .text	000000c8 _fwalk_reent
0080a9a8 g     F .text	0000018c __mdiff
00814048 g     O .bss	00000004 BPB_NumHeads
00804444 g     F .text	00000060 __modsi3
01000000 g       *ABS*	00000000 __alt_data_end
00800020 g     F .exceptions	00000000 alt_exception
00808900 g     F .text	00000004 __sfp_lock_release
00813f78 g     O .bss	00000004 pb_Status
0081404c g     O .bss	00000004 BS_VOLID_32
00810374 g     O .rodata	00000101 _ctype_
008006fc g     F .text	00000014 I2C_Read_CMD
00812248 g     O .rwdata	00000005 cmd7
00814050 g     O .bss	00000001 BS_DrvNum_16
0080fcb0 g     F .text	00000014 _exit
0080b8b0 g     F .text	00000030 __isnand
0080efc0 g     F .text	00000094 alt_alarm_start
0080d3c4 g     F .text	00000124 __muldi3
00800864 g     F .text	00000030 FirstSectorofCluster
008096b8 g     F .text	00000194 __smakebuf_r
00804d8c g     F .text	00000074 strlen
00814054 g     O .bss	00000004 BPB_FSInfo
0080f47c g     F .text	0000018c open
00814058 g     O .bss	00000001 BPB_Media
00803f7c g     F .text	00000088 __gedf2
00814059 g     O .bss	00000003 MBR_Start_Sector
008033b4 g     F .text	00000160 init_audio_codec
0080f200 g     F .text	0000000c alt_icache_flush_all
0081229c g     O .rwdata	00000004 alt_priority_mask
0081405c g     O .bss	00000004 BPB_FSVer
0080f224 g     F .text	00000040 alt_ic_irq_enable
00806d1c g     F .text	00000024 __vfprintf_internal
008177ac g     O .bss	0000000b BS_VOLLab_16
00803e00 g     F .text	00000080 __subdf3
00800778 g     F .text	00000014 I2C_Write_CMD
0080a288 g     F .text	000000c4 __lo0bits
008122a8 g     O .rwdata	00000008 alt_alarm_list
0080f168 g     F .text	0000004c _do_ctors
00800a38 g     F .text	0000002c Ncr
008019dc g     F .text	000000e0 build_cluster_chain
0080d4e8 g     F .text	000000f4 close
00813f84 g     O .bss	00000004 previous_bp
0080d7f4 g     F .text	000000b4 alt_load
0080456c g     F .text	00000314 __pack_d
00814060 g     O .bss	00000004 MBR_BS_Location
00000000  w      *UND*	00000000 free
00808904 g     F .text	00000004 __sinit_lock_acquire
0080af10 g     F .text	0000012c __multadd
0080a1f0 g     F .text	00000028 _Bfree



Disassembly of section .entry:

00800000 <__reset>:
#if NIOS2_ICACHE_SIZE > 0 && defined(ALT_ALLOW_CODE_AT_RESET) && !defined(ALT_SIM_OPTIMIZE)
    /* Assume the instruction cache size is always a power of two. */
#if NIOS2_ICACHE_SIZE > 0x8000
    movhi r2, %hi(NIOS2_ICACHE_SIZE)
#else
    movui r2, NIOS2_ICACHE_SIZE
  800000:	00840014 	movui	r2,4096
#endif

0:
    initi r2
  800004:	1001483a 	initi	r2
    addi r2, r2, -NIOS2_ICACHE_LINE_SIZE
  800008:	10bff804 	addi	r2,r2,-32
    bgt r2, zero, 0b
  80000c:	00bffd16 	blt	zero,r2,800004 <__reset+0x4>
 * Jump to the _start entry point in the .text section if reset code
 * is allowed or if optimizing for RTL simulation.
 */
#if defined(ALT_ALLOW_CODE_AT_RESET) || defined(ALT_SIM_OPTIMIZE)
    /* Jump to the _start entry point in the .text section. */
    movhi r1, %hi(_start)
  800010:	00402034 	movhi	at,128
    ori r1, r1, %lo(_start)
  800014:	08406114 	ori	at,at,388
    jmp r1
  800018:	0800683a 	jmp	at
  80001c:	00000000 	call	0 <__reset-0x800000>

Disassembly of section .exceptions:

00800020 <alt_exception>:
         * Process an exception.  For all exceptions we must preserve all
         * caller saved registers on the stack (See the Nios2 ABI
         * documentation for details).
         */

        addi  sp, sp, -76
  800020:	deffed04 	addi	sp,sp,-76

#endif

#endif

        stw   ra,  0(sp)
  800024:	dfc00015 	stw	ra,0(sp)
        /*
         * Leave a gap in the stack frame at 4(sp) for the muldiv handler to
         * store zero into.
         */

        stw   r1,   8(sp)
  800028:	d8400215 	stw	at,8(sp)
        stw   r2,  12(sp)
  80002c:	d8800315 	stw	r2,12(sp)
        stw   r3,  16(sp)
  800030:	d8c00415 	stw	r3,16(sp)
        stw   r4,  20(sp)
  800034:	d9000515 	stw	r4,20(sp)
        stw   r5,  24(sp)
  800038:	d9400615 	stw	r5,24(sp)
        stw   r6,  28(sp)
  80003c:	d9800715 	stw	r6,28(sp)
        stw   r7,  32(sp)
  800040:	d9c00815 	stw	r7,32(sp)

        rdctl r5, estatus
  800044:	000b307a 	rdctl	r5,estatus

        stw   r8,  36(sp)
  800048:	da000915 	stw	r8,36(sp)
        stw   r9,  40(sp)
  80004c:	da400a15 	stw	r9,40(sp)
        stw   r10, 44(sp)
  800050:	da800b15 	stw	r10,44(sp)
        stw   r11, 48(sp)
  800054:	dac00c15 	stw	r11,48(sp)
        stw   r12, 52(sp)
  800058:	db000d15 	stw	r12,52(sp)
        stw   r13, 56(sp)
  80005c:	db400e15 	stw	r13,56(sp)
        stw   r14, 60(sp)
  800060:	db800f15 	stw	r14,60(sp)
        stw   r15, 64(sp)
  800064:	dbc01015 	stw	r15,64(sp)
        /*
         * ea-4 contains the address of the instruction being executed
         * when the exception occured. For interrupt exceptions, we will
         * will be re-issue the isntruction. Store it in 72(sp)
         */
        stw   r5,  68(sp)  /* estatus */
  800068:	d9401115 	stw	r5,68(sp)
        addi  r15, ea, -4  /* instruction that caused exception */
  80006c:	ebffff04 	addi	r15,ea,-4
        stw   r15,  72(sp)
  800070:	dbc01215 	stw	r15,72(sp)
#else
        /*
         * Test to see if the exception was a software exception or caused 
         * by an external interrupt, and vector accordingly.
         */
        rdctl r4, ipending
  800074:	0009313a 	rdctl	r4,ipending
        andi  r2, r5, 1
  800078:	2880004c 	andi	r2,r5,1
        beq   r2, zero, .Lnot_irq
  80007c:	10000326 	beq	r2,zero,80008c <alt_exception+0x6c>
        beq   r4, zero, .Lnot_irq
  800080:	20000226 	beq	r4,zero,80008c <alt_exception+0x6c>
        /*
         * Now that all necessary registers have been preserved, call 
         * alt_irq_handler() to process the interrupts.
         */

        call alt_irq_handler
  800084:	08000ec0 	call	8000ec <alt_irq_handler>

        .section .exceptions.irqreturn, "xa"

        br    .Lexception_exit
  800088:	00000306 	br	800098 <alt_exception+0x78>
         * upon completion, so we write ea (address of instruction *after*
         * the one where the exception occured) into 72(sp). The actual
         * instruction that caused the exception is written in r2, which these
         * handlers will utilize.
         */
        stw   ea,  72(sp)  /* Don't re-issue */
  80008c:	df401215 	stw	ea,72(sp)
        ldw   r2, -4(ea)   /* Instruction that caused exception */
  800090:	e8bfff17 	ldw	r2,-4(ea)
#ifdef NIOS2_HAS_DEBUG_STUB
       /*
        *  Either tell the user now (if there is a debugger attached) or go into
        *  the debug monitor which will loop until a debugger is attached.
        */
        break
  800094:	003da03a 	break	0
        /* 
         * Restore the saved registers, so that all general purpose registers 
         * have been restored to their state at the time the interrupt occured.
         */

        ldw   r5,  68(sp)
  800098:	d9401117 	ldw	r5,68(sp)
        ldw   ea,  72(sp)  /* This becomes the PC once eret is executed */
  80009c:	df401217 	ldw	ea,72(sp)
        ldw   ra,   0(sp)
  8000a0:	dfc00017 	ldw	ra,0(sp)

        wrctl estatus, r5
  8000a4:	2801707a 	wrctl	estatus,r5

        ldw   r1,   8(sp)
  8000a8:	d8400217 	ldw	at,8(sp)
        ldw   r2,  12(sp)
  8000ac:	d8800317 	ldw	r2,12(sp)
        ldw   r3,  16(sp)
  8000b0:	d8c00417 	ldw	r3,16(sp)
        ldw   r4,  20(sp)
  8000b4:	d9000517 	ldw	r4,20(sp)
        ldw   r5,  24(sp)
  8000b8:	d9400617 	ldw	r5,24(sp)
        ldw   r6,  28(sp)
  8000bc:	d9800717 	ldw	r6,28(sp)
        ldw   r7,  32(sp)
  8000c0:	d9c00817 	ldw	r7,32(sp)
#ifdef ALT_STACK_CHECK
        ldw   et, %gprel(alt_exception_old_stack_limit)(gp)
#endif
#endif

        ldw   r8,  36(sp)
  8000c4:	da000917 	ldw	r8,36(sp)
        ldw   r9,  40(sp)
  8000c8:	da400a17 	ldw	r9,40(sp)
        ldw   r10, 44(sp)
  8000cc:	da800b17 	ldw	r10,44(sp)
        ldw   r11, 48(sp)
  8000d0:	dac00c17 	ldw	r11,48(sp)
        ldw   r12, 52(sp)
  8000d4:	db000d17 	ldw	r12,52(sp)
        ldw   r13, 56(sp)
  8000d8:	db400e17 	ldw	r13,56(sp)
        ldw   r14, 60(sp)
  8000dc:	db800f17 	ldw	r14,60(sp)
        ldw   r15, 64(sp)
  8000e0:	dbc01017 	ldw	r15,64(sp)
#endif

        ldw   sp,  76(sp)

#else
        addi  sp, sp, 76
  8000e4:	dec01304 	addi	sp,sp,76

        /*
         * Return to the interrupted instruction.
         */

        eret
  8000e8:	ef80083a 	eret

008000ec <alt_irq_handler>:
  8000ec:	defffe04 	addi	sp,sp,-8
  8000f0:	dfc00115 	stw	ra,4(sp)
  8000f4:	dc000015 	stw	r16,0(sp)
  8000f8:	000b313a 	rdctl	r5,ipending
  8000fc:	2880004c 	andi	r2,r5,1
  800100:	1005003a 	cmpeq	r2,r2,zero
  800104:	04002074 	movhi	r16,129
  800108:	841dee04 	addi	r16,r16,30648
  80010c:	10001126 	beq	r2,zero,800154 <alt_irq_handler+0x68>
  800110:	00c00044 	movi	r3,1
  800114:	0009883a 	mov	r4,zero
  800118:	18c7883a 	add	r3,r3,r3
  80011c:	28c4703a 	and	r2,r5,r3
  800120:	21000044 	addi	r4,r4,1
  800124:	103ffc26 	beq	r2,zero,800118 <alt_irq_handler+0x2c>
  800128:	200490fa 	slli	r2,r4,3
  80012c:	1405883a 	add	r2,r2,r16
  800130:	11000117 	ldw	r4,4(r2)
  800134:	10c00017 	ldw	r3,0(r2)
  800138:	183ee83a 	callr	r3
  80013c:	0005313a 	rdctl	r2,ipending
  800140:	10000c26 	beq	r2,zero,800174 <alt_irq_handler+0x88>
  800144:	100b883a 	mov	r5,r2
  800148:	2880004c 	andi	r2,r5,1
  80014c:	1005003a 	cmpeq	r2,r2,zero
  800150:	103fef1e 	bne	r2,zero,800110 <alt_irq_handler+0x24>
  800154:	0009883a 	mov	r4,zero
  800158:	200490fa 	slli	r2,r4,3
  80015c:	1405883a 	add	r2,r2,r16
  800160:	11000117 	ldw	r4,4(r2)
  800164:	10c00017 	ldw	r3,0(r2)
  800168:	183ee83a 	callr	r3
  80016c:	0005313a 	rdctl	r2,ipending
  800170:	103ff41e 	bne	r2,zero,800144 <alt_irq_handler+0x58>
  800174:	dfc00117 	ldw	ra,4(sp)
  800178:	dc000017 	ldw	r16,0(sp)
  80017c:	dec00204 	addi	sp,sp,8
  800180:	f800283a 	ret

Disassembly of section .text:

00800184 <_start>:
#if (NIOS2_NUM_OF_SHADOW_REG_SETS == 0)    
    /*
     * Now that the caches are initialized, set up the stack pointer.
     * The value provided by the linker is assumed to be correctly aligned.
     */
    movhi sp, %hi(__alt_stack_pointer)
  800184:	06c04034 	movhi	sp,256
    ori sp, sp, %lo(__alt_stack_pointer)
  800188:	dec00014 	ori	sp,sp,0

    /* Set up the global pointer. */
    movhi gp, %hi(_gp)
  80018c:	06802074 	movhi	gp,129
    ori gp, gp, %lo(_gp)
  800190:	d6a88d14 	ori	gp,gp,41524
 */
#ifndef ALT_SIM_OPTIMIZE
    /* Log that the BSS is about to be cleared. */
    ALT_LOG_PUTS(alt_log_msg_bss)

    movhi r2, %hi(__bss_start)
  800194:	00802074 	movhi	r2,129
    ori r2, r2, %lo(__bss_start)
  800198:	108fdc14 	ori	r2,r2,16240

    movhi r3, %hi(__bss_end)
  80019c:	00c02074 	movhi	r3,129
    ori r3, r3, %lo(__bss_end)
  8001a0:	18de9214 	ori	r3,r3,31304

    beq r2, r3, 1f
  8001a4:	10c00326 	beq	r2,r3,8001b4 <_start+0x30>

0:
    stw zero, (r2)
  8001a8:	10000015 	stw	zero,0(r2)
    addi r2, r2, 4
  8001ac:	10800104 	addi	r2,r2,4
    bltu r2, r3, 0b
  8001b0:	10fffd36 	bltu	r2,r3,8001a8 <_start+0x24>
     * section aren't defined until alt_load() has been called).
     */
    mov   et, zero
#endif

    call alt_load
  8001b4:	080d7f40 	call	80d7f4 <alt_load>

    /* Log that alt_main is about to be called. */
    ALT_LOG_PUTS(alt_log_msg_alt_main)

    /* Call the C entry point. It should never return. */
    call alt_main
  8001b8:	080d9640 	call	80d964 <alt_main>

008001bc <alt_after_alt_main>:

    /* Wait in infinite loop in case alt_main does return. */
alt_after_alt_main:
    br alt_after_alt_main
  8001bc:	003fff06 	br	8001bc <alt_after_alt_main>

008001c0 <LCD_Line2>:
  8001c0:	00c03004 	movi	r3,192
  8001c4:	00804034 	movhi	r2,256
  8001c8:	10841804 	addi	r2,r2,4192
  8001cc:	10c00035 	stwio	r3,0(r2)
  8001d0:	0101f404 	movi	r4,2000
  8001d4:	080dbbc1 	jmpi	80dbbc <usleep>

008001d8 <LCD_Init>:
  8001d8:	defffd04 	addi	sp,sp,-12
  8001dc:	dc800115 	stw	r18,4(sp)
  8001e0:	00800e04 	movi	r2,56
  8001e4:	04804034 	movhi	r18,256
  8001e8:	94841804 	addi	r18,r18,4192
  8001ec:	dfc00215 	stw	ra,8(sp)
  8001f0:	dc400015 	stw	r17,0(sp)
  8001f4:	90800035 	stwio	r2,0(r18)
  8001f8:	0441f404 	movi	r17,2000
  8001fc:	8809883a 	mov	r4,r17
  800200:	080dbbc0 	call	80dbbc <usleep>
  800204:	00c00304 	movi	r3,12
  800208:	90c00035 	stwio	r3,0(r18)
  80020c:	8809883a 	mov	r4,r17
  800210:	080dbbc0 	call	80dbbc <usleep>
  800214:	00c00044 	movi	r3,1
  800218:	90c00035 	stwio	r3,0(r18)
  80021c:	8809883a 	mov	r4,r17
  800220:	080dbbc0 	call	80dbbc <usleep>
  800224:	00c00184 	movi	r3,6
  800228:	90c00035 	stwio	r3,0(r18)
  80022c:	8809883a 	mov	r4,r17
  800230:	080dbbc0 	call	80dbbc <usleep>
  800234:	00c02004 	movi	r3,128
  800238:	90c00035 	stwio	r3,0(r18)
  80023c:	8809883a 	mov	r4,r17
  800240:	dfc00217 	ldw	ra,8(sp)
  800244:	dc800117 	ldw	r18,4(sp)
  800248:	dc400017 	ldw	r17,0(sp)
  80024c:	dec00304 	addi	sp,sp,12
  800250:	080dbbc1 	jmpi	80dbbc <usleep>

00800254 <LCD_Show_Text>:
  800254:	defffc04 	addi	sp,sp,-16
  800258:	dc800215 	stw	r18,8(sp)
  80025c:	dc400115 	stw	r17,4(sp)
  800260:	dc000015 	stw	r16,0(sp)
  800264:	2023883a 	mov	r17,r4
  800268:	0021883a 	mov	r16,zero
  80026c:	04804034 	movhi	r18,256
  800270:	94841a04 	addi	r18,r18,4200
  800274:	dfc00315 	stw	ra,12(sp)
  800278:	00000506 	br	800290 <LCD_Show_Text+0x3c>
  80027c:	18800007 	ldb	r2,0(r3)
  800280:	90800035 	stwio	r2,0(r18)
  800284:	0101f404 	movi	r4,2000
  800288:	080dbbc0 	call	80dbbc <usleep>
  80028c:	84000044 	addi	r16,r16,1
  800290:	8809883a 	mov	r4,r17
  800294:	0804d8c0 	call	804d8c <strlen>
  800298:	8c07883a 	add	r3,r17,r16
  80029c:	80bff736 	bltu	r16,r2,80027c <LCD_Show_Text+0x28>
  8002a0:	dfc00317 	ldw	ra,12(sp)
  8002a4:	dc800217 	ldw	r18,8(sp)
  8002a8:	dc400117 	ldw	r17,4(sp)
  8002ac:	dc000017 	ldw	r16,0(sp)
  8002b0:	dec00404 	addi	sp,sp,16
  8002b4:	f800283a 	ret

008002b8 <LCD_Test>:
  8002b8:	00802074 	movhi	r2,129
  8002bc:	10bf4d04 	addi	r2,r2,-716
  8002c0:	00c02074 	movhi	r3,129
  8002c4:	18ff5204 	addi	r3,r3,-696
  8002c8:	12400317 	ldw	r9,12(r2)
  8002cc:	11000017 	ldw	r4,0(r2)
  8002d0:	11400117 	ldw	r5,4(r2)
  8002d4:	11800217 	ldw	r6,8(r2)
  8002d8:	1a800317 	ldw	r10,12(r3)
  8002dc:	19c00017 	ldw	r7,0(r3)
  8002e0:	18800117 	ldw	r2,4(r3)
  8002e4:	1a000217 	ldw	r8,8(r3)
  8002e8:	defff404 	addi	sp,sp,-48
  8002ec:	dc800a15 	stw	r18,40(sp)
  8002f0:	dc400915 	stw	r17,36(sp)
  8002f4:	dc000815 	stw	r16,32(sp)
  8002f8:	dfc00b15 	stw	ra,44(sp)
  8002fc:	d9000415 	stw	r4,16(sp)
  800300:	d9400515 	stw	r5,20(sp)
  800304:	d9800615 	stw	r6,24(sp)
  800308:	da400715 	stw	r9,28(sp)
  80030c:	d9c00015 	stw	r7,0(sp)
  800310:	d8800115 	stw	r2,4(sp)
  800314:	da000215 	stw	r8,8(sp)
  800318:	da800315 	stw	r10,12(sp)
  80031c:	0021883a 	mov	r16,zero
  800320:	08001d80 	call	8001d8 <LCD_Init>
  800324:	dc400404 	addi	r17,sp,16
  800328:	04804034 	movhi	r18,256
  80032c:	94841a04 	addi	r18,r18,4200
  800330:	00000506 	br	800348 <LCD_Test+0x90>
  800334:	18800007 	ldb	r2,0(r3)
  800338:	90800035 	stwio	r2,0(r18)
  80033c:	0101f404 	movi	r4,2000
  800340:	080dbbc0 	call	80dbbc <usleep>
  800344:	84000044 	addi	r16,r16,1
  800348:	8809883a 	mov	r4,r17
  80034c:	0804d8c0 	call	804d8c <strlen>
  800350:	8c07883a 	add	r3,r17,r16
  800354:	80bff736 	bltu	r16,r2,800334 <LCD_Test+0x7c>
  800358:	00c03004 	movi	r3,192
  80035c:	00804034 	movhi	r2,256
  800360:	10841804 	addi	r2,r2,4192
  800364:	10c00035 	stwio	r3,0(r2)
  800368:	0101f404 	movi	r4,2000
  80036c:	080dbbc0 	call	80dbbc <usleep>
  800370:	0021883a 	mov	r16,zero
  800374:	04404034 	movhi	r17,256
  800378:	8c441a04 	addi	r17,r17,4200
  80037c:	00000506 	br	800394 <LCD_Test+0xdc>
  800380:	18800007 	ldb	r2,0(r3)
  800384:	88800035 	stwio	r2,0(r17)
  800388:	0101f404 	movi	r4,2000
  80038c:	080dbbc0 	call	80dbbc <usleep>
  800390:	84000044 	addi	r16,r16,1
  800394:	d809883a 	mov	r4,sp
  800398:	0804d8c0 	call	804d8c <strlen>
  80039c:	dc07883a 	add	r3,sp,r16
  8003a0:	80bff736 	bltu	r16,r2,800380 <LCD_Test+0xc8>
  8003a4:	dfc00b17 	ldw	ra,44(sp)
  8003a8:	dc800a17 	ldw	r18,40(sp)
  8003ac:	dc400917 	ldw	r17,36(sp)
  8003b0:	dc000817 	ldw	r16,32(sp)
  8003b4:	dec00c04 	addi	sp,sp,48
  8003b8:	f800283a 	ret

008003bc <LCD_File_Buffering>:
  8003bc:	defff504 	addi	sp,sp,-44
  8003c0:	dfc00a15 	stw	ra,40(sp)
  8003c4:	dc400815 	stw	r17,32(sp)
  8003c8:	dc800915 	stw	r18,36(sp)
  8003cc:	dc000715 	stw	r16,28(sp)
  8003d0:	00802074 	movhi	r2,129
  8003d4:	10bf5704 	addi	r2,r2,-676
  8003d8:	13c0020b 	ldhu	r15,8(r2)
  8003dc:	24000283 	ldbu	r16,10(r4)
  8003e0:	10c00017 	ldw	r3,0(r2)
  8003e4:	11400117 	ldw	r5,4(r2)
  8003e8:	21800003 	ldbu	r6,0(r4)
  8003ec:	20800043 	ldbu	r2,1(r4)
  8003f0:	21c00083 	ldbu	r7,2(r4)
  8003f4:	220000c3 	ldbu	r8,3(r4)
  8003f8:	22400103 	ldbu	r9,4(r4)
  8003fc:	22800143 	ldbu	r10,5(r4)
  800400:	22c00183 	ldbu	r11,6(r4)
  800404:	230001c3 	ldbu	r12,7(r4)
  800408:	23400203 	ldbu	r13,8(r4)
  80040c:	23800243 	ldbu	r14,9(r4)
  800410:	d8c00315 	stw	r3,12(sp)
  800414:	d9400415 	stw	r5,16(sp)
  800418:	dbc0050d 	sth	r15,20(sp)
  80041c:	d9800005 	stb	r6,0(sp)
  800420:	d8800045 	stb	r2,1(sp)
  800424:	d9c00085 	stb	r7,2(sp)
  800428:	da0000c5 	stb	r8,3(sp)
  80042c:	da400105 	stb	r9,4(sp)
  800430:	da800145 	stb	r10,5(sp)
  800434:	dac00185 	stb	r11,6(sp)
  800438:	db0001c5 	stb	r12,7(sp)
  80043c:	db400205 	stb	r13,8(sp)
  800440:	db800245 	stb	r14,9(sp)
  800444:	dc000285 	stb	r16,10(sp)
  800448:	d800058d 	sth	zero,22(sp)
  80044c:	d800060d 	sth	zero,24(sp)
  800450:	0021883a 	mov	r16,zero
  800454:	d800068d 	sth	zero,26(sp)
  800458:	d80002c5 	stb	zero,11(sp)
  80045c:	04404034 	movhi	r17,256
  800460:	8c441a04 	addi	r17,r17,4200
  800464:	08001d80 	call	8001d8 <LCD_Init>
  800468:	00000506 	br	800480 <LCD_File_Buffering+0xc4>
  80046c:	18800007 	ldb	r2,0(r3)
  800470:	88800035 	stwio	r2,0(r17)
  800474:	0101f404 	movi	r4,2000
  800478:	080dbbc0 	call	80dbbc <usleep>
  80047c:	84000044 	addi	r16,r16,1
  800480:	d809883a 	mov	r4,sp
  800484:	0804d8c0 	call	804d8c <strlen>
  800488:	dc07883a 	add	r3,sp,r16
  80048c:	80bff736 	bltu	r16,r2,80046c <LCD_File_Buffering+0xb0>
  800490:	00c03004 	movi	r3,192
  800494:	00804034 	movhi	r2,256
  800498:	10841804 	addi	r2,r2,4192
  80049c:	10c00035 	stwio	r3,0(r2)
  8004a0:	0101f404 	movi	r4,2000
  8004a4:	080dbbc0 	call	80dbbc <usleep>
  8004a8:	0021883a 	mov	r16,zero
  8004ac:	dc400304 	addi	r17,sp,12
  8004b0:	04804034 	movhi	r18,256
  8004b4:	94841a04 	addi	r18,r18,4200
  8004b8:	00000506 	br	8004d0 <LCD_File_Buffering+0x114>
  8004bc:	18800007 	ldb	r2,0(r3)
  8004c0:	90800035 	stwio	r2,0(r18)
  8004c4:	0101f404 	movi	r4,2000
  8004c8:	080dbbc0 	call	80dbbc <usleep>
  8004cc:	84000044 	addi	r16,r16,1
  8004d0:	8809883a 	mov	r4,r17
  8004d4:	0804d8c0 	call	804d8c <strlen>
  8004d8:	8c07883a 	add	r3,r17,r16
  8004dc:	80bff736 	bltu	r16,r2,8004bc <LCD_File_Buffering+0x100>
  8004e0:	dfc00a17 	ldw	ra,40(sp)
  8004e4:	dc800917 	ldw	r18,36(sp)
  8004e8:	dc400817 	ldw	r17,32(sp)
  8004ec:	dc000717 	ldw	r16,28(sp)
  8004f0:	dec00b04 	addi	sp,sp,44
  8004f4:	f800283a 	ret

008004f8 <LCD_Display>:
  8004f8:	defff504 	addi	sp,sp,-44
  8004fc:	dfc00a15 	stw	ra,40(sp)
  800500:	dc800915 	stw	r18,36(sp)
  800504:	dc400815 	stw	r17,32(sp)
  800508:	dc000715 	stw	r16,28(sp)
  80050c:	23800283 	ldbu	r14,10(r4)
  800510:	20800003 	ldbu	r2,0(r4)
  800514:	20c00043 	ldbu	r3,1(r4)
  800518:	21800083 	ldbu	r6,2(r4)
  80051c:	21c000c3 	ldbu	r7,3(r4)
  800520:	22000103 	ldbu	r8,4(r4)
  800524:	22400143 	ldbu	r9,5(r4)
  800528:	22800183 	ldbu	r10,6(r4)
  80052c:	22c001c3 	ldbu	r11,7(r4)
  800530:	23000203 	ldbu	r12,8(r4)
  800534:	23400243 	ldbu	r13,9(r4)
  800538:	01000084 	movi	r4,2
  80053c:	d8800005 	stb	r2,0(sp)
  800540:	d8c00045 	stb	r3,1(sp)
  800544:	d9800085 	stb	r6,2(sp)
  800548:	d9c000c5 	stb	r7,3(sp)
  80054c:	da000105 	stb	r8,4(sp)
  800550:	da400145 	stb	r9,5(sp)
  800554:	da800185 	stb	r10,6(sp)
  800558:	dac001c5 	stb	r11,7(sp)
  80055c:	db000205 	stb	r12,8(sp)
  800560:	db400245 	stb	r13,9(sp)
  800564:	db800285 	stb	r14,10(sp)
  800568:	d8000315 	stw	zero,12(sp)
  80056c:	d8000415 	stw	zero,16(sp)
  800570:	d8000515 	stw	zero,20(sp)
  800574:	d8000615 	stw	zero,24(sp)
  800578:	d80002c5 	stb	zero,11(sp)
  80057c:	29004126 	beq	r5,r4,800684 <LCD_Display+0x18c>
  800580:	21403416 	blt	r4,r5,800654 <LCD_Display+0x15c>
  800584:	00800044 	movi	r2,1
  800588:	28805026 	beq	r5,r2,8006cc <LCD_Display+0x1d4>
  80058c:	009b5cb4 	movhi	r2,28018
  800590:	109bd384 	addi	r2,r2,28494
  800594:	d8800315 	stw	r2,12(sp)
  800598:	00d4c834 	movhi	r3,21280
  80059c:	18db1844 	addi	r3,r3,27745
  8005a0:	00991974 	movhi	r2,25701
  8005a4:	10995c04 	addi	r2,r2,25968
  8005a8:	d8c00415 	stw	r3,16(sp)
  8005ac:	d8800515 	stw	r2,20(sp)
  8005b0:	d8000605 	stb	zero,24(sp)
  8005b4:	dc800304 	addi	r18,sp,12
  8005b8:	08001d80 	call	8001d8 <LCD_Init>
  8005bc:	0021883a 	mov	r16,zero
  8005c0:	04404034 	movhi	r17,256
  8005c4:	8c441a04 	addi	r17,r17,4200
  8005c8:	00000506 	br	8005e0 <LCD_Display+0xe8>
  8005cc:	18800007 	ldb	r2,0(r3)
  8005d0:	88800035 	stwio	r2,0(r17)
  8005d4:	0101f404 	movi	r4,2000
  8005d8:	080dbbc0 	call	80dbbc <usleep>
  8005dc:	84000044 	addi	r16,r16,1
  8005e0:	d809883a 	mov	r4,sp
  8005e4:	0804d8c0 	call	804d8c <strlen>
  8005e8:	dc07883a 	add	r3,sp,r16
  8005ec:	80bff736 	bltu	r16,r2,8005cc <LCD_Display+0xd4>
  8005f0:	00c03004 	movi	r3,192
  8005f4:	00804034 	movhi	r2,256
  8005f8:	10841804 	addi	r2,r2,4192
  8005fc:	10c00035 	stwio	r3,0(r2)
  800600:	0101f404 	movi	r4,2000
  800604:	080dbbc0 	call	80dbbc <usleep>
  800608:	0021883a 	mov	r16,zero
  80060c:	04404034 	movhi	r17,256
  800610:	8c441a04 	addi	r17,r17,4200
  800614:	00000506 	br	80062c <LCD_Display+0x134>
  800618:	18800007 	ldb	r2,0(r3)
  80061c:	88800035 	stwio	r2,0(r17)
  800620:	0101f404 	movi	r4,2000
  800624:	080dbbc0 	call	80dbbc <usleep>
  800628:	84000044 	addi	r16,r16,1
  80062c:	9009883a 	mov	r4,r18
  800630:	0804d8c0 	call	804d8c <strlen>
  800634:	9407883a 	add	r3,r18,r16
  800638:	80bff736 	bltu	r16,r2,800618 <LCD_Display+0x120>
  80063c:	dfc00a17 	ldw	ra,40(sp)
  800640:	dc800917 	ldw	r18,36(sp)
  800644:	dc400817 	ldw	r17,32(sp)
  800648:	dc000717 	ldw	r16,28(sp)
  80064c:	dec00b04 	addi	sp,sp,44
  800650:	f800283a 	ret
  800654:	008000c4 	movi	r2,3
  800658:	28801526 	beq	r5,r2,8006b0 <LCD_Display+0x1b8>
  80065c:	00800104 	movi	r2,4
  800660:	28bfca1e 	bne	r5,r2,80058c <LCD_Display+0x94>
  800664:	00995db4 	movhi	r2,25974
  800668:	10995484 	addi	r2,r2,25938
  80066c:	00c01974 	movhi	r3,101
  800670:	18dcdc84 	addi	r3,r3,29554
  800674:	dc800304 	addi	r18,sp,12
  800678:	d8800315 	stw	r2,12(sp)
  80067c:	d8c00415 	stw	r3,16(sp)
  800680:	003fcd06 	br	8005b8 <LCD_Display+0xc0>
  800684:	00999b34 	movhi	r2,26220
  800688:	10985204 	addi	r2,r2,24904
  80068c:	d8800315 	stw	r2,12(sp)
  800690:	00d95c34 	movhi	r3,25968
  800694:	18d4c804 	addi	r3,r3,21280
  800698:	00991944 	movi	r2,25701
  80069c:	dc800304 	addi	r18,sp,12
  8006a0:	d8c00415 	stw	r3,16(sp)
  8006a4:	d880050d 	sth	r2,20(sp)
  8006a8:	d8000585 	stb	zero,22(sp)
  8006ac:	003fc206 	br	8005b8 <LCD_Display+0xc0>
  8006b0:	00985b34 	movhi	r2,24940
  8006b4:	10995104 	addi	r2,r2,25924
  8006b8:	00c01e44 	movi	r3,121
  8006bc:	dc800304 	addi	r18,sp,12
  8006c0:	d8800315 	stw	r2,12(sp)
  8006c4:	d8c0040d 	sth	r3,16(sp)
  8006c8:	003fbb06 	br	8005b8 <LCD_Display+0xc0>
  8006cc:	00989d74 	movhi	r2,25205
  8006d0:	109bd104 	addi	r2,r2,28484
  8006d4:	d8800315 	stw	r2,12(sp)
  8006d8:	00d4c834 	movhi	r3,21280
  8006dc:	18d95b04 	addi	r3,r3,25964
  8006e0:	00991974 	movhi	r2,25701
  8006e4:	10995c04 	addi	r2,r2,25968
  8006e8:	dc800304 	addi	r18,sp,12
  8006ec:	d8c00415 	stw	r3,16(sp)
  8006f0:	d8800515 	stw	r2,20(sp)
  8006f4:	d8000605 	stb	zero,24(sp)
  8006f8:	003faf06 	br	8005b8 <LCD_Display+0xc0>

008006fc <I2C_Read_CMD>:
  8006fc:	00c04034 	movhi	r3,256
  800700:	18c41404 	addi	r3,r3,4176
  800704:	18800037 	ldwio	r2,0(r3)
  800708:	10803fcc 	andi	r2,r2,255
  80070c:	f800283a 	ret

00800710 <I2C_Read_Status>:
  800710:	00c04034 	movhi	r3,256
  800714:	18c41404 	addi	r3,r3,4176
  800718:	18800037 	ldwio	r2,0(r3)
  80071c:	10803fcc 	andi	r2,r2,255
  800720:	f800283a 	ret

00800724 <I2C_Read_RX>:
  800724:	00c04034 	movhi	r3,256
  800728:	18c41304 	addi	r3,r3,4172
  80072c:	18800037 	ldwio	r2,0(r3)
  800730:	10803fcc 	andi	r2,r2,255
  800734:	f800283a 	ret

00800738 <I2C_Read_Ctrl>:
  800738:	00c04034 	movhi	r3,256
  80073c:	18c41204 	addi	r3,r3,4168
  800740:	18800037 	ldwio	r2,0(r3)
  800744:	10803fcc 	andi	r2,r2,255
  800748:	f800283a 	ret

0080074c <I2C_Read_Period>:
  80074c:	00804034 	movhi	r2,256
  800750:	10841004 	addi	r2,r2,4160
  800754:	11000037 	ldwio	r4,0(r2)
  800758:	00c04034 	movhi	r3,256
  80075c:	18c41104 	addi	r3,r3,4164
  800760:	18800037 	ldwio	r2,0(r3)
  800764:	10803fcc 	andi	r2,r2,255
  800768:	1004943a 	slli	r2,r2,16
  80076c:	21003fcc 	andi	r4,r4,255
  800770:	1105883a 	add	r2,r2,r4
  800774:	f800283a 	ret

00800778 <I2C_Write_CMD>:
  800778:	21003fcc 	andi	r4,r4,255
  80077c:	00804034 	movhi	r2,256
  800780:	10841404 	addi	r2,r2,4176
  800784:	11000035 	stwio	r4,0(r2)
  800788:	f800283a 	ret

0080078c <I2C_Write_TX>:
  80078c:	21003fcc 	andi	r4,r4,255
  800790:	00804034 	movhi	r2,256
  800794:	10841304 	addi	r2,r2,4172
  800798:	11000035 	stwio	r4,0(r2)
  80079c:	f800283a 	ret

008007a0 <I2C_Write_Ctrl>:
  8007a0:	21003fcc 	andi	r4,r4,255
  8007a4:	00804034 	movhi	r2,256
  8007a8:	10841204 	addi	r2,r2,4168
  8007ac:	11000035 	stwio	r4,0(r2)
  8007b0:	f800283a 	ret

008007b4 <I2C_Write_Period>:
  8007b4:	20c03fcc 	andi	r3,r4,255
  8007b8:	00804034 	movhi	r2,256
  8007bc:	10841004 	addi	r2,r2,4160
  8007c0:	10c00035 	stwio	r3,0(r2)
  8007c4:	2008d43a 	srli	r4,r4,16
  8007c8:	10800104 	addi	r2,r2,4
  8007cc:	11000035 	stwio	r4,0(r2)
  8007d0:	f800283a 	ret

008007d4 <I2C_Send>:
  8007d4:	21003fcc 	andi	r4,r4,255
  8007d8:	00804034 	movhi	r2,256
  8007dc:	10841304 	addi	r2,r2,4172
  8007e0:	11000035 	stwio	r4,0(r2)
  8007e4:	29403fcc 	andi	r5,r5,255
  8007e8:	0007883a 	mov	r3,zero
  8007ec:	28000126 	beq	r5,zero,8007f4 <I2C_Send+0x20>
  8007f0:	00ffe004 	movi	r3,-128
  8007f4:	30803fcc 	andi	r2,r6,255
  8007f8:	10000126 	beq	r2,zero,800800 <I2C_Send+0x2c>
  8007fc:	18c01014 	ori	r3,r3,64
  800800:	18c00414 	ori	r3,r3,16
  800804:	18c03fcc 	andi	r3,r3,255
  800808:	00804034 	movhi	r2,256
  80080c:	10841404 	addi	r2,r2,4176
  800810:	10c00035 	stwio	r3,0(r2)
  800814:	1009883a 	mov	r4,r2
  800818:	20800037 	ldwio	r2,0(r4)
  80081c:	10803fcc 	andi	r2,r2,255
  800820:	10c0008c 	andi	r3,r2,2
  800824:	183ffc1e 	bne	r3,zero,800818 <I2C_Send+0x44>
  800828:	0084303a 	nor	r2,zero,r2
  80082c:	10803fcc 	andi	r2,r2,255
  800830:	1004d1fa 	srli	r2,r2,7
  800834:	f800283a 	ret

00800838 <I2C_Init>:
  800838:	20c03fcc 	andi	r3,r4,255
  80083c:	00804034 	movhi	r2,256
  800840:	10841004 	addi	r2,r2,4160
  800844:	10c00035 	stwio	r3,0(r2)
  800848:	2008d43a 	srli	r4,r4,16
  80084c:	10800104 	addi	r2,r2,4
  800850:	11000035 	stwio	r4,0(r2)
  800854:	00c03004 	movi	r3,192
  800858:	10800104 	addi	r2,r2,4
  80085c:	10c00035 	stwio	r3,0(r2)
  800860:	f800283a 	ret

00800864 <FirstSectorofCluster>:
  800864:	d1675b43 	ldbu	r5,-25235(gp)
  800868:	deffff04 	addi	sp,sp,-4
  80086c:	213fff84 	addi	r4,r4,-2
  800870:	dfc00015 	stw	ra,0(sp)
  800874:	08044b40 	call	8044b4 <__mulsi3>
  800878:	d0e76717 	ldw	r3,-25188(gp)
  80087c:	d1278b17 	ldw	r4,-25044(gp)
  800880:	1907883a 	add	r3,r3,r4
  800884:	10c5883a 	add	r2,r2,r3
  800888:	dfc00017 	ldw	ra,0(sp)
  80088c:	dec00104 	addi	sp,sp,4
  800890:	f800283a 	ret

00800894 <isEOF>:
  800894:	d1678117 	ldw	r5,-25084(gp)
  800898:	0083fdc4 	movi	r2,4087
  80089c:	00c3fd04 	movi	r3,4084
  8008a0:	1105803a 	cmpltu	r2,r2,r4
  8008a4:	1940082e 	bgeu	r3,r5,8008c8 <isEOF+0x34>
  8008a8:	00c40034 	movhi	r3,4096
  8008ac:	18fffdc4 	addi	r3,r3,-9
  8008b0:	00bffdd4 	movui	r2,65527
  8008b4:	1105803a 	cmpltu	r2,r2,r4
  8008b8:	1909803a 	cmpltu	r4,r3,r4
  8008bc:	00fffd14 	movui	r3,65524
  8008c0:	1940012e 	bgeu	r3,r5,8008c8 <isEOF+0x34>
  8008c4:	2005883a 	mov	r2,r4
  8008c8:	10803fcc 	andi	r2,r2,255
  8008cc:	f800283a 	ret

008008d0 <send_cmd>:
  8008d0:	00c00044 	movi	r3,1
  8008d4:	00804034 	movhi	r2,256
  8008d8:	10844504 	addi	r2,r2,4372
  8008dc:	10c00035 	stwio	r3,0(r2)
  8008e0:	0019883a 	mov	r12,zero
  8008e4:	000f883a 	mov	r7,zero
  8008e8:	02404034 	movhi	r9,256
  8008ec:	4a444804 	addi	r9,r9,4384
  8008f0:	02c04034 	movhi	r11,256
  8008f4:	5ac44404 	addi	r11,r11,4368
  8008f8:	02800204 	movi	r10,8
  8008fc:	03400144 	movi	r13,5
  800900:	6105883a 	add	r2,r12,r4
  800904:	11800003 	ldbu	r6,0(r2)
  800908:	0011883a 	mov	r8,zero
  80090c:	48000035 	stwio	zero,0(r9)
  800910:	30803fcc 	andi	r2,r6,255
  800914:	1080201c 	xori	r2,r2,128
  800918:	10bfe004 	addi	r2,r2,-128
  80091c:	10003016 	blt	r2,zero,8009e0 <send_cmd+0x110>
  800920:	58000035 	stwio	zero,0(r11)
  800924:	39cb883a 	add	r5,r7,r7
  800928:	280f883a 	mov	r7,r5
  80092c:	48c00035 	stwio	r3,0(r9)
  800930:	2984f03a 	xor	r2,r5,r6
  800934:	10803fcc 	andi	r2,r2,255
  800938:	1080201c 	xori	r2,r2,128
  80093c:	10bfe004 	addi	r2,r2,-128
  800940:	318d883a 	add	r6,r6,r6
  800944:	42000044 	addi	r8,r8,1
  800948:	10002216 	blt	r2,zero,8009d4 <send_cmd+0x104>
  80094c:	42bfef1e 	bne	r8,r10,80090c <send_cmd+0x3c>
  800950:	63000044 	addi	r12,r12,1
  800954:	39c01fcc 	andi	r7,r7,127
  800958:	637fe91e 	bne	r12,r13,800900 <send_cmd+0x30>
  80095c:	38803fcc 	andi	r2,r7,255
  800960:	1085883a 	add	r2,r2,r2
  800964:	10800054 	ori	r2,r2,1
  800968:	1007883a 	mov	r3,r2
  80096c:	1013883a 	mov	r9,r2
  800970:	0009883a 	mov	r4,zero
  800974:	01404034 	movhi	r5,256
  800978:	29444804 	addi	r5,r5,4384
  80097c:	02004034 	movhi	r8,256
  800980:	42044404 	addi	r8,r8,4368
  800984:	01800044 	movi	r6,1
  800988:	01c00204 	movi	r7,8
  80098c:	00000506 	br	8009a4 <send_cmd+0xd4>
  800990:	40000035 	stwio	zero,0(r8)
  800994:	29800035 	stwio	r6,0(r5)
  800998:	21000044 	addi	r4,r4,1
  80099c:	18c7883a 	add	r3,r3,r3
  8009a0:	21c00a26 	beq	r4,r7,8009cc <send_cmd+0xfc>
  8009a4:	28000035 	stwio	zero,0(r5)
  8009a8:	18803fcc 	andi	r2,r3,255
  8009ac:	1080201c 	xori	r2,r2,128
  8009b0:	10bfe004 	addi	r2,r2,-128
  8009b4:	103ff60e 	bge	r2,zero,800990 <send_cmd+0xc0>
  8009b8:	41800035 	stwio	r6,0(r8)
  8009bc:	29800035 	stwio	r6,0(r5)
  8009c0:	21000044 	addi	r4,r4,1
  8009c4:	18c7883a 	add	r3,r3,r3
  8009c8:	21fff61e 	bne	r4,r7,8009a4 <send_cmd+0xd4>
  8009cc:	48803fcc 	andi	r2,r9,255
  8009d0:	f800283a 	ret
  8009d4:	29c0025c 	xori	r7,r5,9
  8009d8:	42bfcc1e 	bne	r8,r10,80090c <send_cmd+0x3c>
  8009dc:	003fdc06 	br	800950 <send_cmd+0x80>
  8009e0:	58c00035 	stwio	r3,0(r11)
  8009e4:	003fcf06 	br	800924 <send_cmd+0x54>

008009e8 <Ncc>:
  8009e8:	00804034 	movhi	r2,256
  8009ec:	10844804 	addi	r2,r2,4384
  8009f0:	10000035 	stwio	zero,0(r2)
  8009f4:	00c00044 	movi	r3,1
  8009f8:	10c00035 	stwio	r3,0(r2)
  8009fc:	10000035 	stwio	zero,0(r2)
  800a00:	10c00035 	stwio	r3,0(r2)
  800a04:	10000035 	stwio	zero,0(r2)
  800a08:	10c00035 	stwio	r3,0(r2)
  800a0c:	10000035 	stwio	zero,0(r2)
  800a10:	10c00035 	stwio	r3,0(r2)
  800a14:	10000035 	stwio	zero,0(r2)
  800a18:	10c00035 	stwio	r3,0(r2)
  800a1c:	10000035 	stwio	zero,0(r2)
  800a20:	10c00035 	stwio	r3,0(r2)
  800a24:	10000035 	stwio	zero,0(r2)
  800a28:	10c00035 	stwio	r3,0(r2)
  800a2c:	10000035 	stwio	zero,0(r2)
  800a30:	10c00035 	stwio	r3,0(r2)
  800a34:	f800283a 	ret

00800a38 <Ncr>:
  800a38:	00804034 	movhi	r2,256
  800a3c:	10844504 	addi	r2,r2,4372
  800a40:	10000035 	stwio	zero,0(r2)
  800a44:	00c04034 	movhi	r3,256
  800a48:	18c44804 	addi	r3,r3,4384
  800a4c:	18000035 	stwio	zero,0(r3)
  800a50:	00800044 	movi	r2,1
  800a54:	18800035 	stwio	r2,0(r3)
  800a58:	18000035 	stwio	zero,0(r3)
  800a5c:	18800035 	stwio	r2,0(r3)
  800a60:	f800283a 	ret

00800a64 <response_R>:
  800a64:	defffc04 	addi	sp,sp,-16
  800a68:	000b883a 	mov	r5,zero
  800a6c:	01804034 	movhi	r6,256
  800a70:	31844804 	addi	r6,r6,4384
  800a74:	02400044 	movi	r9,1
  800a78:	02004034 	movhi	r8,256
  800a7c:	42044404 	addi	r8,r8,4368
  800a80:	01c01944 	movi	r7,101
  800a84:	dcc00315 	stw	r19,12(sp)
  800a88:	dc800215 	stw	r18,8(sp)
  800a8c:	dc400115 	stw	r17,4(sp)
  800a90:	dc000015 	stw	r16,0(sp)
  800a94:	00000106 	br	800a9c <response_R+0x38>
  800a98:	19c06826 	beq	r3,r7,800c3c <response_R+0x1d8>
  800a9c:	30000035 	stwio	zero,0(r6)
  800aa0:	32400035 	stwio	r9,0(r6)
  800aa4:	40800037 	ldwio	r2,0(r8)
  800aa8:	28c03fcc 	andi	r3,r5,255
  800aac:	29400044 	addi	r5,r5,1
  800ab0:	103ff91e 	bne	r2,zero,800a98 <response_R+0x34>
  800ab4:	24003fcc 	andi	r16,r4,255
  800ab8:	00800084 	movi	r2,2
  800abc:	80806626 	beq	r16,r2,800c58 <response_R+0x1f4>
  800ac0:	00800184 	movi	r2,6
  800ac4:	14403fcc 	andi	r17,r2,255
  800ac8:	0017883a 	mov	r11,zero
  800acc:	0027883a 	mov	r19,zero
  800ad0:	000b883a 	mov	r5,zero
  800ad4:	0015883a 	mov	r10,zero
  800ad8:	0009883a 	mov	r4,zero
  800adc:	04802074 	movhi	r18,129
  800ae0:	94903004 	addi	r18,r18,16576
  800ae4:	23003fcc 	andi	r12,r4,255
  800ae8:	60000226 	beq	r12,zero,800af4 <response_R+0x90>
  800aec:	6485883a 	add	r2,r12,r18
  800af0:	12ffffc3 	ldbu	r11,-1(r2)
  800af4:	0011883a 	mov	r8,zero
  800af8:	000d883a 	mov	r6,zero
  800afc:	02404034 	movhi	r9,256
  800b00:	4a444804 	addi	r9,r9,4384
  800b04:	03800044 	movi	r14,1
  800b08:	03404034 	movhi	r13,256
  800b0c:	6b444404 	addi	r13,r13,4368
  800b10:	03c001c4 	movi	r15,7
  800b14:	60001e1e 	bne	r12,zero,800b90 <response_R+0x12c>
  800b18:	48000035 	stwio	zero,0(r9)
  800b1c:	50803fcc 	andi	r2,r10,255
  800b20:	10003526 	beq	r2,zero,800bf8 <response_R+0x194>
  800b24:	4211883a 	add	r8,r8,r8
  800b28:	52800044 	addi	r10,r10,1
  800b2c:	4b800035 	stwio	r14,0(r9)
  800b30:	69c00037 	ldwio	r7,0(r13)
  800b34:	31800044 	addi	r6,r6,1
  800b38:	30c03fcc 	andi	r3,r6,255
  800b3c:	38000126 	beq	r7,zero,800b44 <response_R+0xe0>
  800b40:	42000054 	ori	r8,r8,1
  800b44:	78fff42e 	bgeu	r15,r3,800b18 <response_R+0xb4>
  800b48:	008000c4 	movi	r2,3
  800b4c:	80802e26 	beq	r16,r2,800c08 <response_R+0x1a4>
  800b50:	21000044 	addi	r4,r4,1
  800b54:	6485883a 	add	r2,r12,r18
  800b58:	20c03fcc 	andi	r3,r4,255
  800b5c:	12000005 	stb	r8,0(r2)
  800b60:	1c7fe036 	bltu	r3,r17,800ae4 <response_R+0x80>
  800b64:	00800044 	movi	r2,1
  800b68:	80802f26 	beq	r16,r2,800c28 <response_R+0x1c4>
  800b6c:	00800184 	movi	r2,6
  800b70:	80802d26 	beq	r16,r2,800c28 <response_R+0x1c4>
  800b74:	98803fcc 	andi	r2,r19,255
  800b78:	dcc00317 	ldw	r19,12(sp)
  800b7c:	dc800217 	ldw	r18,8(sp)
  800b80:	dc400117 	ldw	r17,4(sp)
  800b84:	dc000017 	ldw	r16,0(sp)
  800b88:	dec00404 	addi	sp,sp,16
  800b8c:	f800283a 	ret
  800b90:	48000035 	stwio	zero,0(r9)
  800b94:	50803fcc 	andi	r2,r10,255
  800b98:	1000151e 	bne	r2,zero,800bf0 <response_R+0x18c>
  800b9c:	31800044 	addi	r6,r6,1
  800ba0:	52800044 	addi	r10,r10,1
  800ba4:	4b800035 	stwio	r14,0(r9)
  800ba8:	69c00037 	ldwio	r7,0(r13)
  800bac:	294b883a 	add	r5,r5,r5
  800bb0:	2ac4f03a 	xor	r2,r5,r11
  800bb4:	10803fcc 	andi	r2,r2,255
  800bb8:	31800044 	addi	r6,r6,1
  800bbc:	1080201c 	xori	r2,r2,128
  800bc0:	10bfe004 	addi	r2,r2,-128
  800bc4:	30c03fcc 	andi	r3,r6,255
  800bc8:	38000126 	beq	r7,zero,800bd0 <response_R+0x16c>
  800bcc:	42000054 	ori	r8,r8,1
  800bd0:	280f883a 	mov	r7,r5
  800bd4:	10000a16 	blt	r2,zero,800c00 <response_R+0x19c>
  800bd8:	39401fcc 	andi	r5,r7,127
  800bdc:	5ad7883a 	add	r11,r11,r11
  800be0:	78ffd936 	bltu	r15,r3,800b48 <response_R+0xe4>
  800be4:	48000035 	stwio	zero,0(r9)
  800be8:	50803fcc 	andi	r2,r10,255
  800bec:	103feb26 	beq	r2,zero,800b9c <response_R+0x138>
  800bf0:	4211883a 	add	r8,r8,r8
  800bf4:	003fea06 	br	800ba0 <response_R+0x13c>
  800bf8:	31800044 	addi	r6,r6,1
  800bfc:	003fca06 	br	800b28 <response_R+0xc4>
  800c00:	29c0025c 	xori	r7,r5,9
  800c04:	003ff406 	br	800bd8 <response_R+0x174>
  800c08:	00800044 	movi	r2,1
  800c0c:	60bfd01e 	bne	r12,r2,800b50 <response_R+0xec>
  800c10:	40803fcc 	andi	r2,r8,255
  800c14:	1080201c 	xori	r2,r2,128
  800c18:	10bfe004 	addi	r2,r2,-128
  800c1c:	103fcc16 	blt	r2,zero,800b50 <response_R+0xec>
  800c20:	6027883a 	mov	r19,r12
  800c24:	003fca06 	br	800b50 <response_R+0xec>
  800c28:	28803fcc 	andi	r2,r5,255
  800c2c:	1085883a 	add	r2,r2,r2
  800c30:	40c03fcc 	andi	r3,r8,255
  800c34:	10800044 	addi	r2,r2,1
  800c38:	18bfce26 	beq	r3,r2,800b74 <response_R+0x110>
  800c3c:	00800084 	movi	r2,2
  800c40:	dcc00317 	ldw	r19,12(sp)
  800c44:	dc800217 	ldw	r18,8(sp)
  800c48:	dc400117 	ldw	r17,4(sp)
  800c4c:	dc000017 	ldw	r16,0(sp)
  800c50:	dec00404 	addi	sp,sp,16
  800c54:	f800283a 	ret
  800c58:	00800444 	movi	r2,17
  800c5c:	003f9906 	br	800ac4 <response_R+0x60>

00800c60 <info_bs>:
  800c60:	deffff04 	addi	sp,sp,-4
  800c64:	01002074 	movhi	r4,129
  800c68:	213f5b04 	addi	r4,r4,-660
  800c6c:	dfc00015 	stw	ra,0(sp)
  800c70:	0804b180 	call	804b18 <printf>
  800c74:	d0e76644 	addi	r3,gp,-25191
  800c78:	19800043 	ldbu	r6,1(r3)
  800c7c:	19c00083 	ldbu	r7,2(r3)
  800c80:	d1676643 	ldbu	r5,-25191(gp)
  800c84:	01002074 	movhi	r4,129
  800c88:	213f6504 	addi	r4,r4,-620
  800c8c:	0804b180 	call	804b18 <printf>
  800c90:	01002074 	movhi	r4,129
  800c94:	213f6e04 	addi	r4,r4,-584
  800c98:	d1677784 	addi	r5,gp,-25122
  800c9c:	0804b180 	call	804b18 <printf>
  800ca0:	d1676e17 	ldw	r5,-25160(gp)
  800ca4:	01002074 	movhi	r4,129
  800ca8:	213f7204 	addi	r4,r4,-568
  800cac:	0804b180 	call	804b18 <printf>
  800cb0:	d1675b43 	ldbu	r5,-25235(gp)
  800cb4:	01002074 	movhi	r4,129
  800cb8:	213f7704 	addi	r4,r4,-548
  800cbc:	0804b180 	call	804b18 <printf>
  800cc0:	d1678317 	ldw	r5,-25076(gp)
  800cc4:	01002074 	movhi	r4,129
  800cc8:	213f7c04 	addi	r4,r4,-528
  800ccc:	0804b180 	call	804b18 <printf>
  800cd0:	d1676803 	ldbu	r5,-25184(gp)
  800cd4:	01002074 	movhi	r4,129
  800cd8:	213f8104 	addi	r4,r4,-508
  800cdc:	0804b180 	call	804b18 <printf>
  800ce0:	d1675c17 	ldw	r5,-25232(gp)
  800ce4:	01002074 	movhi	r4,129
  800ce8:	213f8604 	addi	r4,r4,-488
  800cec:	0804b180 	call	804b18 <printf>
  800cf0:	d1677517 	ldw	r5,-25132(gp)
  800cf4:	01002074 	movhi	r4,129
  800cf8:	213f8b04 	addi	r4,r4,-468
  800cfc:	0804b180 	call	804b18 <printf>
  800d00:	d1678903 	ldbu	r5,-25052(gp)
  800d04:	01002074 	movhi	r4,129
  800d08:	213f9004 	addi	r4,r4,-448
  800d0c:	0804b180 	call	804b18 <printf>
  800d10:	d1676917 	ldw	r5,-25180(gp)
  800d14:	01002074 	movhi	r4,129
  800d18:	213f9404 	addi	r4,r4,-432
  800d1c:	0804b180 	call	804b18 <printf>
  800d20:	d1676217 	ldw	r5,-25208(gp)
  800d24:	01002074 	movhi	r4,129
  800d28:	213f9904 	addi	r4,r4,-412
  800d2c:	0804b180 	call	804b18 <printf>
  800d30:	d1678517 	ldw	r5,-25068(gp)
  800d34:	01002074 	movhi	r4,129
  800d38:	213f9e04 	addi	r4,r4,-392
  800d3c:	0804b180 	call	804b18 <printf>
  800d40:	d1676317 	ldw	r5,-25204(gp)
  800d44:	01002074 	movhi	r4,129
  800d48:	213fa304 	addi	r4,r4,-372
  800d4c:	0804b180 	call	804b18 <printf>
  800d50:	d1677e17 	ldw	r5,-25096(gp)
  800d54:	01002074 	movhi	r4,129
  800d58:	213fa804 	addi	r4,r4,-352
  800d5c:	0804b180 	call	804b18 <printf>
  800d60:	d1678217 	ldw	r5,-25080(gp)
  800d64:	01002074 	movhi	r4,129
  800d68:	213fad04 	addi	r4,r4,-332
  800d6c:	280d883a 	mov	r6,r5
  800d70:	0804b180 	call	804b18 <printf>
  800d74:	d1677017 	ldw	r5,-25152(gp)
  800d78:	01002074 	movhi	r4,129
  800d7c:	213fb504 	addi	r4,r4,-300
  800d80:	280d883a 	mov	r6,r5
  800d84:	0804b180 	call	804b18 <printf>
  800d88:	d1676717 	ldw	r5,-25188(gp)
  800d8c:	01002074 	movhi	r4,129
  800d90:	213fbb04 	addi	r4,r4,-276
  800d94:	280d883a 	mov	r6,r5
  800d98:	0804b180 	call	804b18 <printf>
  800d9c:	d1678017 	ldw	r5,-25088(gp)
  800da0:	01002074 	movhi	r4,129
  800da4:	213fc304 	addi	r4,r4,-244
  800da8:	280d883a 	mov	r6,r5
  800dac:	0804b180 	call	804b18 <printf>
  800db0:	d1677f17 	ldw	r5,-25092(gp)
  800db4:	01002074 	movhi	r4,129
  800db8:	213fc904 	addi	r4,r4,-220
  800dbc:	280d883a 	mov	r6,r5
  800dc0:	0804b180 	call	804b18 <printf>
  800dc4:	d1678117 	ldw	r5,-25084(gp)
  800dc8:	01002074 	movhi	r4,129
  800dcc:	213fcf04 	addi	r4,r4,-196
  800dd0:	280d883a 	mov	r6,r5
  800dd4:	0804b180 	call	804b18 <printf>
  800dd8:	d1676017 	ldw	r5,-25216(gp)
  800ddc:	01002074 	movhi	r4,129
  800de0:	213fd704 	addi	r4,r4,-164
  800de4:	280d883a 	mov	r6,r5
  800de8:	dfc00017 	ldw	ra,0(sp)
  800dec:	dec00104 	addi	sp,sp,4
  800df0:	0804b181 	jmpi	804b18 <printf>

00800df4 <SD_read_lba>:
  800df4:	defff704 	addi	sp,sp,-36
  800df8:	ddc00715 	stw	r23,28(sp)
  800dfc:	dd400515 	stw	r21,20(sp)
  800e00:	dcc00315 	stw	r19,12(sp)
  800e04:	dfc00815 	stw	ra,32(sp)
  800e08:	dd800615 	stw	r22,24(sp)
  800e0c:	dd000415 	stw	r20,16(sp)
  800e10:	dc800215 	stw	r18,8(sp)
  800e14:	dc400115 	stw	r17,4(sp)
  800e18:	dc000015 	stw	r16,0(sp)
  800e1c:	302f883a 	mov	r23,r6
  800e20:	202b883a 	mov	r21,r4
  800e24:	2827883a 	mov	r19,r5
  800e28:	30008226 	beq	r6,zero,801034 <SD_read_lba+0x240>
  800e2c:	0029883a 	mov	r20,zero
  800e30:	0025883a 	mov	r18,zero
  800e34:	d5a77604 	addi	r22,gp,-25128
  800e38:	04004034 	movhi	r16,256
  800e3c:	84044804 	addi	r16,r16,4384
  800e40:	80000035 	stwio	zero,0(r16)
  800e44:	04400044 	movi	r17,1
  800e48:	84400035 	stwio	r17,0(r16)
  800e4c:	80000035 	stwio	zero,0(r16)
  800e50:	84400035 	stwio	r17,0(r16)
  800e54:	80000035 	stwio	zero,0(r16)
  800e58:	84400035 	stwio	r17,0(r16)
  800e5c:	80000035 	stwio	zero,0(r16)
  800e60:	84400035 	stwio	r17,0(r16)
  800e64:	80000035 	stwio	zero,0(r16)
  800e68:	84400035 	stwio	r17,0(r16)
  800e6c:	80000035 	stwio	zero,0(r16)
  800e70:	84400035 	stwio	r17,0(r16)
  800e74:	80000035 	stwio	zero,0(r16)
  800e78:	84400035 	stwio	r17,0(r16)
  800e7c:	80000035 	stwio	zero,0(r16)
  800e80:	84400035 	stwio	r17,0(r16)
  800e84:	9806d3fa 	srli	r3,r19,15
  800e88:	980ad1fa 	srli	r5,r19,7
  800e8c:	9ccd883a 	add	r6,r19,r19
  800e90:	d1277604 	addi	r4,gp,-25128
  800e94:	00801444 	movi	r2,81
  800e98:	b0c00045 	stb	r3,1(r22)
  800e9c:	b1400085 	stb	r5,2(r22)
  800ea0:	b18000c5 	stb	r6,3(r22)
  800ea4:	b0000105 	stb	zero,4(r22)
  800ea8:	d0a77605 	stb	r2,-25128(gp)
  800eac:	08008d00 	call	8008d0 <send_cmd>
  800eb0:	00c04034 	movhi	r3,256
  800eb4:	18c44504 	addi	r3,r3,4372
  800eb8:	18000035 	stwio	zero,0(r3)
  800ebc:	80000035 	stwio	zero,0(r16)
  800ec0:	84400035 	stwio	r17,0(r16)
  800ec4:	80000035 	stwio	zero,0(r16)
  800ec8:	84400035 	stwio	r17,0(r16)
  800ecc:	01004034 	movhi	r4,256
  800ed0:	21044804 	addi	r4,r4,4384
  800ed4:	20000035 	stwio	zero,0(r4)
  800ed8:	00800044 	movi	r2,1
  800edc:	20800035 	stwio	r2,0(r4)
  800ee0:	00c04034 	movhi	r3,256
  800ee4:	18c44004 	addi	r3,r3,4352
  800ee8:	18800037 	ldwio	r2,0(r3)
  800eec:	103ff71e 	bne	r2,zero,800ecc <SD_read_lba+0xd8>
  800ef0:	a813883a 	mov	r9,r21
  800ef4:	0011883a 	mov	r8,zero
  800ef8:	01004034 	movhi	r4,256
  800efc:	21044804 	addi	r4,r4,4384
  800f00:	20000035 	stwio	zero,0(r4)
  800f04:	01c00044 	movi	r7,1
  800f08:	21c00035 	stwio	r7,0(r4)
  800f0c:	948b883a 	add	r5,r18,r18
  800f10:	2807883a 	mov	r3,r5
  800f14:	01804034 	movhi	r6,256
  800f18:	31844004 	addi	r6,r6,4352
  800f1c:	30800037 	ldwio	r2,0(r6)
  800f20:	10000126 	beq	r2,zero,800f28 <SD_read_lba+0x134>
  800f24:	29c6b03a 	or	r3,r5,r7
  800f28:	20000035 	stwio	zero,0(r4)
  800f2c:	21c00035 	stwio	r7,0(r4)
  800f30:	18cb883a 	add	r5,r3,r3
  800f34:	2807883a 	mov	r3,r5
  800f38:	30800037 	ldwio	r2,0(r6)
  800f3c:	10000126 	beq	r2,zero,800f44 <SD_read_lba+0x150>
  800f40:	28c00054 	ori	r3,r5,1
  800f44:	20000035 	stwio	zero,0(r4)
  800f48:	21c00035 	stwio	r7,0(r4)
  800f4c:	18cb883a 	add	r5,r3,r3
  800f50:	2807883a 	mov	r3,r5
  800f54:	30800037 	ldwio	r2,0(r6)
  800f58:	10000126 	beq	r2,zero,800f60 <SD_read_lba+0x16c>
  800f5c:	28c00054 	ori	r3,r5,1
  800f60:	20000035 	stwio	zero,0(r4)
  800f64:	21c00035 	stwio	r7,0(r4)
  800f68:	18cb883a 	add	r5,r3,r3
  800f6c:	2807883a 	mov	r3,r5
  800f70:	30800037 	ldwio	r2,0(r6)
  800f74:	10000126 	beq	r2,zero,800f7c <SD_read_lba+0x188>
  800f78:	28c00054 	ori	r3,r5,1
  800f7c:	20000035 	stwio	zero,0(r4)
  800f80:	21c00035 	stwio	r7,0(r4)
  800f84:	18cb883a 	add	r5,r3,r3
  800f88:	2807883a 	mov	r3,r5
  800f8c:	30800037 	ldwio	r2,0(r6)
  800f90:	10000126 	beq	r2,zero,800f98 <SD_read_lba+0x1a4>
  800f94:	28c00054 	ori	r3,r5,1
  800f98:	20000035 	stwio	zero,0(r4)
  800f9c:	21c00035 	stwio	r7,0(r4)
  800fa0:	18cb883a 	add	r5,r3,r3
  800fa4:	2807883a 	mov	r3,r5
  800fa8:	30800037 	ldwio	r2,0(r6)
  800fac:	10000126 	beq	r2,zero,800fb4 <SD_read_lba+0x1c0>
  800fb0:	28c00054 	ori	r3,r5,1
  800fb4:	20000035 	stwio	zero,0(r4)
  800fb8:	21c00035 	stwio	r7,0(r4)
  800fbc:	18cb883a 	add	r5,r3,r3
  800fc0:	2807883a 	mov	r3,r5
  800fc4:	30800037 	ldwio	r2,0(r6)
  800fc8:	10000126 	beq	r2,zero,800fd0 <SD_read_lba+0x1dc>
  800fcc:	28c00054 	ori	r3,r5,1
  800fd0:	20000035 	stwio	zero,0(r4)
  800fd4:	21c00035 	stwio	r7,0(r4)
  800fd8:	18e5883a 	add	r18,r3,r3
  800fdc:	30800037 	ldwio	r2,0(r6)
  800fe0:	10000126 	beq	r2,zero,800fe8 <SD_read_lba+0x1f4>
  800fe4:	94800054 	ori	r18,r18,1
  800fe8:	42000044 	addi	r8,r8,1
  800fec:	00808004 	movi	r2,512
  800ff0:	4c800005 	stb	r18,0(r9)
  800ff4:	4a400044 	addi	r9,r9,1
  800ff8:	40bfbf1e 	bne	r8,r2,800ef8 <SD_read_lba+0x104>
  800ffc:	aa2b883a 	add	r21,r21,r8
  801000:	0005883a 	mov	r2,zero
  801004:	00c04034 	movhi	r3,256
  801008:	18c44804 	addi	r3,r3,4384
  80100c:	01400044 	movi	r5,1
  801010:	01000404 	movi	r4,16
  801014:	18000035 	stwio	zero,0(r3)
  801018:	19400035 	stwio	r5,0(r3)
  80101c:	10800044 	addi	r2,r2,1
  801020:	113ffc1e 	bne	r2,r4,801014 <SD_read_lba+0x220>
  801024:	a5000044 	addi	r20,r20,1
  801028:	bd000226 	beq	r23,r20,801034 <SD_read_lba+0x240>
  80102c:	9cc00044 	addi	r19,r19,1
  801030:	003f8106 	br	800e38 <SD_read_lba+0x44>
  801034:	00800044 	movi	r2,1
  801038:	d0a77745 	stb	r2,-25123(gp)
  80103c:	0005883a 	mov	r2,zero
  801040:	dfc00817 	ldw	ra,32(sp)
  801044:	ddc00717 	ldw	r23,28(sp)
  801048:	dd800617 	ldw	r22,24(sp)
  80104c:	dd400517 	ldw	r21,20(sp)
  801050:	dd000417 	ldw	r20,16(sp)
  801054:	dcc00317 	ldw	r19,12(sp)
  801058:	dc800217 	ldw	r18,8(sp)
  80105c:	dc400117 	ldw	r17,4(sp)
  801060:	dc000017 	ldw	r16,0(sp)
  801064:	dec00904 	addi	sp,sp,36
  801068:	f800283a 	ret

0080106c <get_rel_sector>:
  80106c:	defff604 	addi	sp,sp,-40
  801070:	dd000415 	stw	r20,16(sp)
  801074:	dc800215 	stw	r18,8(sp)
  801078:	2829883a 	mov	r20,r5
  80107c:	2025883a 	mov	r18,r4
  801080:	d1676e17 	ldw	r5,-25160(gp)
  801084:	21000417 	ldw	r4,16(r4)
  801088:	dfc00915 	stw	ra,36(sp)
  80108c:	dcc00315 	stw	r19,12(sp)
  801090:	dc400115 	stw	r17,4(sp)
  801094:	3027883a 	mov	r19,r6
  801098:	dc000015 	stw	r16,0(sp)
  80109c:	df000815 	stw	fp,32(sp)
  8010a0:	3821883a 	mov	r16,r7
  8010a4:	ddc00715 	stw	r23,28(sp)
  8010a8:	dd800615 	stw	r22,24(sp)
  8010ac:	dd400515 	stw	r21,20(sp)
  8010b0:	08044a40 	call	8044a4 <__udivsi3>
  8010b4:	1009883a 	mov	r4,r2
  8010b8:	08041d40 	call	8041d4 <__floatunsidf>
  8010bc:	180b883a 	mov	r5,r3
  8010c0:	1009883a 	mov	r4,r2
  8010c4:	08035140 	call	803514 <ceil>
  8010c8:	180b883a 	mov	r5,r3
  8010cc:	1009883a 	mov	r4,r2
  8010d0:	08040fc0 	call	8040fc <__fixdfsi>
  8010d4:	1023883a 	mov	r17,r2
  8010d8:	80800d16 	blt	r16,r2,801110 <get_rel_sector+0xa4>
  8010dc:	00bfffc4 	movi	r2,-1
  8010e0:	dfc00917 	ldw	ra,36(sp)
  8010e4:	df000817 	ldw	fp,32(sp)
  8010e8:	ddc00717 	ldw	r23,28(sp)
  8010ec:	dd800617 	ldw	r22,24(sp)
  8010f0:	dd400517 	ldw	r21,20(sp)
  8010f4:	dd000417 	ldw	r20,16(sp)
  8010f8:	dcc00317 	ldw	r19,12(sp)
  8010fc:	dc800217 	ldw	r18,8(sp)
  801100:	dc400117 	ldw	r17,4(sp)
  801104:	dc000017 	ldw	r16,0(sp)
  801108:	dec00a04 	addi	sp,sp,40
  80110c:	f800283a 	ret
  801110:	803ff216 	blt	r16,zero,8010dc <get_rel_sector+0x70>
  801114:	d5675b43 	ldbu	r21,-25235(gp)
  801118:	d0a76717 	ldw	r2,-25188(gp)
  80111c:	d0e78b17 	ldw	r3,-25044(gp)
  801120:	856cb03a 	or	r22,r16,r21
  801124:	010003c4 	movi	r4,15
  801128:	10f9883a 	add	fp,r2,r3
  80112c:	25802836 	bltu	r4,r22,8011d0 <get_rel_sector+0x164>
  801130:	8004913a 	slli	r2,r16,4
  801134:	00c02074 	movhi	r3,129
  801138:	18c17e04 	addi	r3,r3,1528
  80113c:	1544b03a 	or	r2,r2,r21
  801140:	10c5883a 	add	r2,r2,r3
  801144:	11000003 	ldbu	r4,0(r2)
  801148:	a80b883a 	mov	r5,r21
  80114c:	08044b40 	call	8044b4 <__mulsi3>
  801150:	80afc83a 	sub	r23,r16,r2
  801154:	008003c4 	movi	r2,15
  801158:	15802236 	bltu	r2,r22,8011e4 <get_rel_sector+0x178>
  80115c:	8004913a 	slli	r2,r16,4
  801160:	00c02074 	movhi	r3,129
  801164:	18c17e04 	addi	r3,r3,1528
  801168:	1544b03a 	or	r2,r2,r21
  80116c:	10c5883a 	add	r2,r2,r3
  801170:	11000003 	ldbu	r4,0(r2)
  801174:	08040040 	call	804004 <__floatsidf>
  801178:	180b883a 	mov	r5,r3
  80117c:	1009883a 	mov	r4,r2
  801180:	08037280 	call	803728 <floor>
  801184:	180b883a 	mov	r5,r3
  801188:	1009883a 	mov	r4,r2
  80118c:	08040fc0 	call	8040fc <__fixdfsi>
  801190:	1085883a 	add	r2,r2,r2
  801194:	1085883a 	add	r2,r2,r2
  801198:	14c5883a 	add	r2,r2,r19
  80119c:	11000017 	ldw	r4,0(r2)
  8011a0:	a80b883a 	mov	r5,r21
  8011a4:	213fff84 	addi	r4,r4,-2
  8011a8:	08044b40 	call	8044b4 <__mulsi3>
  8011ac:	b885883a 	add	r2,r23,r2
  8011b0:	e08b883a 	add	r5,fp,r2
  8011b4:	a009883a 	mov	r4,r20
  8011b8:	01800044 	movi	r6,1
  8011bc:	0800df40 	call	800df4 <SD_read_lba>
  8011c0:	88ffffc4 	addi	r3,r17,-1
  8011c4:	80c00c26 	beq	r16,r3,8011f8 <get_rel_sector+0x18c>
  8011c8:	0005883a 	mov	r2,zero
  8011cc:	003fc406 	br	8010e0 <get_rel_sector+0x74>
  8011d0:	8009883a 	mov	r4,r16
  8011d4:	a80b883a 	mov	r5,r21
  8011d8:	08043e40 	call	8043e4 <__divsi3>
  8011dc:	1009883a 	mov	r4,r2
  8011e0:	003fd906 	br	801148 <get_rel_sector+0xdc>
  8011e4:	8009883a 	mov	r4,r16
  8011e8:	a80b883a 	mov	r5,r21
  8011ec:	08043e40 	call	8043e4 <__divsi3>
  8011f0:	1009883a 	mov	r4,r2
  8011f4:	003fdf06 	br	801174 <get_rel_sector+0x108>
  8011f8:	d1676e17 	ldw	r5,-25160(gp)
  8011fc:	8809883a 	mov	r4,r17
  801200:	08044b40 	call	8044b4 <__mulsi3>
  801204:	90c00417 	ldw	r3,16(r18)
  801208:	1885c83a 	sub	r2,r3,r2
  80120c:	003fb406 	br	8010e0 <get_rel_sector+0x74>

00801210 <search_for_filetype>:
  801210:	deff7004 	addi	sp,sp,-576
  801214:	dcc08915 	stw	r19,548(sp)
  801218:	dcc00404 	addi	r19,sp,16
  80121c:	ddc08d15 	stw	r23,564(sp)
  801220:	dc008615 	stw	r16,536(sp)
  801224:	d9408415 	stw	r5,528(sp)
  801228:	202f883a 	mov	r23,r4
  80122c:	3021883a 	mov	r16,r6
  801230:	9809883a 	mov	r4,r19
  801234:	000b883a 	mov	r5,zero
  801238:	01808004 	movi	r6,512
  80123c:	dfc08f15 	stw	ra,572(sp)
  801240:	df008e15 	stw	fp,568(sp)
  801244:	dd808c15 	stw	r22,560(sp)
  801248:	dd408b15 	stw	r21,556(sp)
  80124c:	dd008a15 	stw	r20,552(sp)
  801250:	dc808815 	stw	r18,544(sp)
  801254:	dc408715 	stw	r17,540(sp)
  801258:	d9c08515 	stw	r7,532(sp)
  80125c:	0804a800 	call	804a80 <memset>
  801260:	d8808517 	ldw	r2,532(sp)
  801264:	1000b526 	beq	r2,zero,80153c <search_for_filetype+0x32c>
  801268:	d0e78b17 	ldw	r3,-25044(gp)
  80126c:	d0a76017 	ldw	r2,-25216(gp)
  801270:	9809883a 	mov	r4,r19
  801274:	01800044 	movi	r6,1
  801278:	18ab883a 	add	r21,r3,r2
  80127c:	a80b883a 	mov	r5,r21
  801280:	0800df40 	call	800df4 <SD_read_lba>
  801284:	0025883a 	mov	r18,zero
  801288:	0029883a 	mov	r20,zero
  80128c:	91403fcc 	andi	r5,r18,255
  801290:	2822917a 	slli	r17,r5,5
  801294:	9c45883a 	add	r2,r19,r17
  801298:	11800003 	ldbu	r6,0(r2)
  80129c:	30005926 	beq	r6,zero,801404 <search_for_filetype+0x1f4>
  8012a0:	894002c4 	addi	r5,r17,11
  8012a4:	9945883a 	add	r2,r19,r5
  8012a8:	11000003 	ldbu	r4,0(r2)
  8012ac:	20c003cc 	andi	r3,r4,15
  8012b0:	20800fcc 	andi	r2,r4,63
  8012b4:	18806a26 	beq	r3,r2,801460 <search_for_filetype+0x250>
  8012b8:	9945883a 	add	r2,r19,r5
  8012bc:	14000003 	ldbu	r16,0(r2)
  8012c0:	81003fcc 	andi	r4,r16,255
  8012c4:	2080020c 	andi	r2,r4,8
  8012c8:	10003e1e 	bne	r2,zero,8013c4 <search_for_filetype+0x1b4>
  8012cc:	9c45883a 	add	r2,r19,r17
  8012d0:	13c00003 	ldbu	r15,0(r2)
  8012d4:	00803944 	movi	r2,229
  8012d8:	78c03fcc 	andi	r3,r15,255
  8012dc:	18803926 	beq	r3,r2,8013c4 <search_for_filetype+0x1b4>
  8012e0:	2080040c 	andi	r2,r4,16
  8012e4:	1000771e 	bne	r2,zero,8014c4 <search_for_filetype+0x2b4>
  8012e8:	dac00484 	addi	r11,sp,18
  8012ec:	dd800444 	addi	r22,sp,17
  8012f0:	df0004c4 	addi	fp,sp,19
  8012f4:	da000504 	addi	r8,sp,20
  8012f8:	d9c00544 	addi	r7,sp,21
  8012fc:	d9800584 	addi	r6,sp,22
  801300:	d94005c4 	addi	r5,sp,23
  801304:	d9000604 	addi	r4,sp,24
  801308:	d8c00644 	addi	r3,sp,25
  80130c:	d8800684 	addi	r2,sp,26
  801310:	5c55883a 	add	r10,r11,r17
  801314:	4451883a 	add	r8,r8,r17
  801318:	3c4f883a 	add	r7,r7,r17
  80131c:	2c4b883a 	add	r5,r5,r17
  801320:	2449883a 	add	r4,r4,r17
  801324:	1c47883a 	add	r3,r3,r17
  801328:	1445883a 	add	r2,r2,r17
  80132c:	b453883a 	add	r9,r22,r17
  801330:	344d883a 	add	r6,r6,r17
  801334:	e457883a 	add	r11,fp,r17
  801338:	23000003 	ldbu	r12,0(r4)
  80133c:	1b400003 	ldbu	r13,0(r3)
  801340:	13800003 	ldbu	r14,0(r2)
  801344:	48c00003 	ldbu	r3,0(r9)
  801348:	50800003 	ldbu	r2,0(r10)
  80134c:	59000003 	ldbu	r4,0(r11)
  801350:	42400003 	ldbu	r9,0(r8)
  801354:	3a800003 	ldbu	r10,0(r7)
  801358:	32000003 	ldbu	r8,0(r6)
  80135c:	29c00003 	ldbu	r7,0(r5)
  801360:	d90001c5 	stb	r4,7(sp)
  801364:	dbc00105 	stb	r15,4(sp)
  801368:	d8c00145 	stb	r3,5(sp)
  80136c:	d8800185 	stb	r2,6(sp)
  801370:	da400205 	stb	r9,8(sp)
  801374:	da800245 	stb	r10,9(sp)
  801378:	da000285 	stb	r8,10(sp)
  80137c:	d9c002c5 	stb	r7,11(sp)
  801380:	db000005 	stb	r12,0(sp)
  801384:	db400045 	stb	r13,1(sp)
  801388:	db800085 	stb	r14,2(sp)
  80138c:	db000305 	stb	r12,12(sp)
  801390:	db400345 	stb	r13,13(sp)
  801394:	db800385 	stb	r14,14(sp)
  801398:	d80003c5 	stb	zero,15(sp)
  80139c:	d80000c5 	stb	zero,3(sp)
  8013a0:	b809883a 	mov	r4,r23
  8013a4:	d80b883a 	mov	r5,sp
  8013a8:	0804c440 	call	804c44 <strcmp>
  8013ac:	1000051e 	bne	r2,zero,8013c4 <search_for_filetype+0x1b4>
  8013b0:	d0e74f17 	ldw	r3,-25284(gp)
  8013b4:	d0a75017 	ldw	r2,-25280(gp)
  8013b8:	18806f26 	beq	r3,r2,801578 <search_for_filetype+0x368>
  8013bc:	18800044 	addi	r2,r3,1
  8013c0:	d0a74f15 	stw	r2,-25284(gp)
  8013c4:	94800044 	addi	r18,r18,1
  8013c8:	91403fcc 	andi	r5,r18,255
  8013cc:	2806917a 	slli	r3,r5,5
  8013d0:	d0a76e17 	ldw	r2,-25160(gp)
  8013d4:	18bfae36 	bltu	r3,r2,801290 <search_for_filetype+0x80>
  8013d8:	a5000044 	addi	r20,r20,1
  8013dc:	a54b883a 	add	r5,r20,r21
  8013e0:	01800044 	movi	r6,1
  8013e4:	9809883a 	mov	r4,r19
  8013e8:	0800df40 	call	800df4 <SD_read_lba>
  8013ec:	000b883a 	mov	r5,zero
  8013f0:	2822917a 	slli	r17,r5,5
  8013f4:	0025883a 	mov	r18,zero
  8013f8:	9c45883a 	add	r2,r19,r17
  8013fc:	11800003 	ldbu	r6,0(r2)
  801400:	303fa71e 	bne	r6,zero,8012a0 <search_for_filetype+0x90>
  801404:	d8808517 	ldw	r2,532(sp)
  801408:	10005826 	beq	r2,zero,80156c <search_for_filetype+0x35c>
  80140c:	d0a75017 	ldw	r2,-25280(gp)
  801410:	10005126 	beq	r2,zero,801558 <search_for_filetype+0x348>
  801414:	d9408417 	ldw	r5,528(sp)
  801418:	b809883a 	mov	r4,r23
  80141c:	000d883a 	mov	r6,zero
  801420:	01c00044 	movi	r7,1
  801424:	d0275015 	stw	zero,-25280(gp)
  801428:	d0274f15 	stw	zero,-25284(gp)
  80142c:	08012100 	call	801210 <search_for_filetype>
  801430:	dfc08f17 	ldw	ra,572(sp)
  801434:	df008e17 	ldw	fp,568(sp)
  801438:	ddc08d17 	ldw	r23,564(sp)
  80143c:	dd808c17 	ldw	r22,560(sp)
  801440:	dd408b17 	ldw	r21,556(sp)
  801444:	dd008a17 	ldw	r20,552(sp)
  801448:	dcc08917 	ldw	r19,548(sp)
  80144c:	dc808817 	ldw	r18,544(sp)
  801450:	dc408717 	ldw	r17,540(sp)
  801454:	dc008617 	ldw	r16,536(sp)
  801458:	dec09004 	addi	sp,sp,576
  80145c:	f800283a 	ret
  801460:	00800204 	movi	r2,8
  801464:	20bfd726 	beq	r4,r2,8013c4 <search_for_filetype+0x1b4>
  801468:	00803944 	movi	r2,229
  80146c:	30bf9226 	beq	r6,r2,8012b8 <search_for_filetype+0xa8>
  801470:	34002fcc 	andi	r16,r6,191
  801474:	803f9026 	beq	r16,zero,8012b8 <search_for_filetype+0xa8>
  801478:	94800044 	addi	r18,r18,1
  80147c:	90c03fcc 	andi	r3,r18,255
  801480:	1806917a 	slli	r3,r3,5
  801484:	d0a76e17 	ldw	r2,-25160(gp)
  801488:	9809883a 	mov	r4,r19
  80148c:	01800044 	movi	r6,1
  801490:	843fffc4 	addi	r16,r16,-1
  801494:	1880052e 	bgeu	r3,r2,8014ac <search_for_filetype+0x29c>
  801498:	803ff71e 	bne	r16,zero,801478 <search_for_filetype+0x268>
  80149c:	90803fcc 	andi	r2,r18,255
  8014a0:	1022917a 	slli	r17,r2,5
  8014a4:	894002c4 	addi	r5,r17,11
  8014a8:	003f8306 	br	8012b8 <search_for_filetype+0xa8>
  8014ac:	a1a9883a 	add	r20,r20,r6
  8014b0:	ad0b883a 	add	r5,r21,r20
  8014b4:	0025883a 	mov	r18,zero
  8014b8:	0800df40 	call	800df4 <SD_read_lba>
  8014bc:	803fee1e 	bne	r16,zero,801478 <search_for_filetype+0x268>
  8014c0:	003ff606 	br	80149c <search_for_filetype+0x28c>
  8014c4:	89800504 	addi	r6,r17,20
  8014c8:	89400684 	addi	r5,r17,26
  8014cc:	d8800444 	addi	r2,sp,17
  8014d0:	1189883a 	add	r4,r2,r6
  8014d4:	1145883a 	add	r2,r2,r5
  8014d8:	11c00003 	ldbu	r7,0(r2)
  8014dc:	20c00003 	ldbu	r3,0(r4)
  8014e0:	998d883a 	add	r6,r19,r6
  8014e4:	994b883a 	add	r5,r19,r5
  8014e8:	19c7883a 	add	r3,r3,r7
  8014ec:	30800003 	ldbu	r2,0(r6)
  8014f0:	29000003 	ldbu	r4,0(r5)
  8014f4:	1806923a 	slli	r3,r3,8
  8014f8:	d1675b43 	ldbu	r5,-25235(gp)
  8014fc:	2089883a 	add	r4,r4,r2
  801500:	20c9883a 	add	r4,r4,r3
  801504:	213fff84 	addi	r4,r4,-2
  801508:	08044b40 	call	8044b4 <__mulsi3>
  80150c:	d1a76717 	ldw	r6,-25188(gp)
  801510:	d0e78b17 	ldw	r3,-25044(gp)
  801514:	d9408417 	ldw	r5,528(sp)
  801518:	b809883a 	mov	r4,r23
  80151c:	30cd883a 	add	r6,r6,r3
  801520:	118d883a 	add	r6,r2,r6
  801524:	000f883a 	mov	r7,zero
  801528:	08012100 	call	801210 <search_for_filetype>
  80152c:	103fa51e 	bne	r2,zero,8013c4 <search_for_filetype+0x1b4>
  801530:	000b883a 	mov	r5,zero
  801534:	2805883a 	mov	r2,r5
  801538:	003fbd06 	br	801430 <search_for_filetype+0x220>
  80153c:	9809883a 	mov	r4,r19
  801540:	800b883a 	mov	r5,r16
  801544:	01800044 	movi	r6,1
  801548:	0800df40 	call	800df4 <SD_read_lba>
  80154c:	802b883a 	mov	r21,r16
  801550:	04800084 	movi	r18,2
  801554:	003f4c06 	br	801288 <search_for_filetype+0x78>
  801558:	b80b883a 	mov	r5,r23
  80155c:	01002074 	movhi	r4,129
  801560:	213fe004 	addi	r4,r4,-128
  801564:	0804b180 	call	804b18 <printf>
  801568:	003fb106 	br	801430 <search_for_filetype+0x220>
  80156c:	01400044 	movi	r5,1
  801570:	2805883a 	mov	r2,r5
  801574:	003fae06 	br	801430 <search_for_filetype+0x220>
  801578:	d9008417 	ldw	r4,528(sp)
  80157c:	d9400104 	addi	r5,sp,4
  801580:	0804d000 	call	804d00 <strcpy>
  801584:	88c00704 	addi	r3,r17,28
  801588:	88800684 	addi	r2,r17,26
  80158c:	89400504 	addi	r5,r17,20
  801590:	d9800484 	addi	r6,sp,18
  801594:	30d3883a 	add	r9,r6,r3
  801598:	e0d7883a 	add	r11,fp,r3
  80159c:	b089883a 	add	r4,r22,r2
  8015a0:	b14f883a 	add	r7,r22,r5
  8015a4:	b0d1883a 	add	r8,r22,r3
  8015a8:	23000003 	ldbu	r12,0(r4)
  8015ac:	39800003 	ldbu	r6,0(r7)
  8015b0:	42800003 	ldbu	r10,0(r8)
  8015b4:	49c00003 	ldbu	r7,0(r9)
  8015b8:	5a000003 	ldbu	r8,0(r11)
  8015bc:	98c7883a 	add	r3,r19,r3
  8015c0:	dac08417 	ldw	r11,528(sp)
  8015c4:	9885883a 	add	r2,r19,r2
  8015c8:	994b883a 	add	r5,r19,r5
  8015cc:	2a400003 	ldbu	r9,0(r5)
  8015d0:	11000003 	ldbu	r4,0(r2)
  8015d4:	330d883a 	add	r6,r6,r12
  8015d8:	18800003 	ldbu	r2,0(r3)
  8015dc:	5014923a 	slli	r10,r10,8
  8015e0:	4010963a 	slli	r8,r8,24
  8015e4:	380e943a 	slli	r7,r7,16
  8015e8:	300c923a 	slli	r6,r6,8
  8015ec:	5c0002c5 	stb	r16,11(r11)
  8015f0:	d1675b43 	ldbu	r5,-25235(gp)
  8015f4:	2249883a 	add	r4,r4,r9
  8015f8:	1284b03a 	or	r2,r2,r10
  8015fc:	3a0eb03a 	or	r7,r7,r8
  801600:	2189883a 	add	r4,r4,r6
  801604:	11c4b03a 	or	r2,r2,r7
  801608:	59000315 	stw	r4,12(r11)
  80160c:	58800415 	stw	r2,16(r11)
  801610:	213fff84 	addi	r4,r4,-2
  801614:	08044b40 	call	8044b4 <__mulsi3>
  801618:	d1278b17 	ldw	r4,-25044(gp)
  80161c:	d0e76717 	ldw	r3,-25188(gp)
  801620:	000b883a 	mov	r5,zero
  801624:	d0274f15 	stw	zero,-25284(gp)
  801628:	1907883a 	add	r3,r3,r4
  80162c:	10c5883a 	add	r2,r2,r3
  801630:	d1275017 	ldw	r4,-25280(gp)
  801634:	d8c08417 	ldw	r3,528(sp)
  801638:	21000044 	addi	r4,r4,1
  80163c:	18800515 	stw	r2,20(r3)
  801640:	2805883a 	mov	r2,r5
  801644:	18000615 	stw	zero,24(r3)
  801648:	d1275015 	stw	r4,-25280(gp)
  80164c:	003f7806 	br	801430 <search_for_filetype+0x220>

00801650 <button_ISR>:
  801650:	defffd04 	addi	sp,sp,-12
  801654:	dfc00215 	stw	ra,8(sp)
  801658:	dc400115 	stw	r17,4(sp)
  80165c:	dc000015 	stw	r16,0(sp)
  801660:	00804034 	movhi	r2,256
  801664:	10842704 	addi	r2,r2,4252
  801668:	10c00037 	ldwio	r3,0(r2)
  80166c:	01400044 	movi	r5,1
  801670:	1c0003cc 	andi	r16,r3,15
  801674:	8144703a 	and	r2,r16,r5
  801678:	1005003a 	cmpeq	r2,r2,zero
  80167c:	1000061e 	bne	r2,zero,801698 <button_ISR+0x48>
  801680:	d0a75117 	ldw	r2,-25276(gp)
  801684:	11400426 	beq	r2,r5,801698 <button_ISR+0x48>
  801688:	01002074 	movhi	r4,129
  80168c:	213fe804 	addi	r4,r4,-96
  801690:	d1675115 	stw	r5,-25276(gp)
  801694:	0804c300 	call	804c30 <puts>
  801698:	8080008c 	andi	r2,r16,2
  80169c:	10000226 	beq	r2,zero,8016a8 <button_ISR+0x58>
  8016a0:	d0a75117 	ldw	r2,-25276(gp)
  8016a4:	10002f1e 	bne	r2,zero,801764 <button_ISR+0x114>
  8016a8:	8080010c 	andi	r2,r16,4
  8016ac:	10000326 	beq	r2,zero,8016bc <button_ISR+0x6c>
  8016b0:	d4675117 	ldw	r17,-25276(gp)
  8016b4:	00800044 	movi	r2,1
  8016b8:	88802f26 	beq	r17,r2,801778 <button_ISR+0x128>
  8016bc:	8080020c 	andi	r2,r16,8
  8016c0:	10000326 	beq	r2,zero,8016d0 <button_ISR+0x80>
  8016c4:	d4275117 	ldw	r16,-25276(gp)
  8016c8:	00800044 	movi	r2,1
  8016cc:	80800826 	beq	r16,r2,8016f0 <button_ISR+0xa0>
  8016d0:	00804034 	movhi	r2,256
  8016d4:	10842704 	addi	r2,r2,4252
  8016d8:	10000035 	stwio	zero,0(r2)
  8016dc:	dfc00217 	ldw	ra,8(sp)
  8016e0:	dc400117 	ldw	r17,4(sp)
  8016e4:	dc000017 	ldw	r16,0(sp)
  8016e8:	dec00304 	addi	sp,sp,12
  8016ec:	f800283a 	ret
  8016f0:	d0a75417 	ldw	r2,-25264(gp)
  8016f4:	103ff61e 	bne	r2,zero,8016d0 <button_ISR+0x80>
  8016f8:	01002074 	movhi	r4,129
  8016fc:	213ff504 	addi	r4,r4,-44
  801700:	0804b180 	call	804b18 <printf>
  801704:	d0a75017 	ldw	r2,-25280(gp)
  801708:	d4275415 	stw	r16,-25264(gp)
  80170c:	14002c26 	beq	r2,r16,8017c0 <button_ISR+0x170>
  801710:	10bfff84 	addi	r2,r2,-2
  801714:	d0a75015 	stw	r2,-25280(gp)
  801718:	1009883a 	mov	r4,r2
  80171c:	01400304 	movi	r5,12
  801720:	08044ac0 	call	8044ac <__umodsi3>
  801724:	000d883a 	mov	r6,zero
  801728:	01002074 	movhi	r4,129
  80172c:	213ff404 	addi	r4,r4,-48
  801730:	01402074 	movhi	r5,129
  801734:	29503504 	addi	r5,r5,16596
  801738:	01c00044 	movi	r7,1
  80173c:	d0a75015 	stw	r2,-25280(gp)
  801740:	08012100 	call	801210 <search_for_filetype>
  801744:	00804034 	movhi	r2,256
  801748:	10842704 	addi	r2,r2,4252
  80174c:	10000035 	stwio	zero,0(r2)
  801750:	dfc00217 	ldw	ra,8(sp)
  801754:	dc400117 	ldw	r17,4(sp)
  801758:	dc000017 	ldw	r16,0(sp)
  80175c:	dec00304 	addi	sp,sp,12
  801760:	f800283a 	ret
  801764:	01002074 	movhi	r4,129
  801768:	213fec04 	addi	r4,r4,-80
  80176c:	d0275115 	stw	zero,-25276(gp)
  801770:	0804c300 	call	804c30 <puts>
  801774:	003fcc06 	br	8016a8 <button_ISR+0x58>
  801778:	d0a75317 	ldw	r2,-25268(gp)
  80177c:	103fcf1e 	bne	r2,zero,8016bc <button_ISR+0x6c>
  801780:	01002074 	movhi	r4,129
  801784:	213ff004 	addi	r4,r4,-64
  801788:	0804c300 	call	804c30 <puts>
  80178c:	d1275017 	ldw	r4,-25280(gp)
  801790:	01400304 	movi	r5,12
  801794:	d4675315 	stw	r17,-25268(gp)
  801798:	08044ac0 	call	8044ac <__umodsi3>
  80179c:	880f883a 	mov	r7,r17
  8017a0:	01002074 	movhi	r4,129
  8017a4:	213ff404 	addi	r4,r4,-48
  8017a8:	01402074 	movhi	r5,129
  8017ac:	29503504 	addi	r5,r5,16596
  8017b0:	000d883a 	mov	r6,zero
  8017b4:	d0a75015 	stw	r2,-25280(gp)
  8017b8:	08012100 	call	801210 <search_for_filetype>
  8017bc:	003fbf06 	br	8016bc <button_ISR+0x6c>
  8017c0:	008002c4 	movi	r2,11
  8017c4:	1009883a 	mov	r4,r2
  8017c8:	d0a75015 	stw	r2,-25280(gp)
  8017cc:	003fd306 	br	80171c <button_ISR+0xcc>

008017d0 <CalcFATSecAndOffset>:
  8017d0:	d0e78117 	ldw	r3,-25084(gp)
  8017d4:	deff7c04 	addi	sp,sp,-528
  8017d8:	0083fd04 	movi	r2,4084
  8017dc:	dc008015 	stw	r16,512(sp)
  8017e0:	dfc08315 	stw	ra,524(sp)
  8017e4:	dcc08215 	stw	r19,520(sp)
  8017e8:	dc408115 	stw	r17,516(sp)
  8017ec:	2021883a 	mov	r16,r4
  8017f0:	10c03036 	bltu	r2,r3,8018b4 <CalcFATSecAndOffset+0xe4>
  8017f4:	2004d07a 	srli	r2,r4,1
  8017f8:	2085883a 	add	r2,r4,r2
  8017fc:	d0a75d15 	stw	r2,-25228(gp)
  801800:	1023883a 	mov	r17,r2
  801804:	d4e76e17 	ldw	r19,-25160(gp)
  801808:	8809883a 	mov	r4,r17
  80180c:	980b883a 	mov	r5,r19
  801810:	08044a40 	call	8044a4 <__udivsi3>
  801814:	d0e78317 	ldw	r3,-25076(gp)
  801818:	8809883a 	mov	r4,r17
  80181c:	980b883a 	mov	r5,r19
  801820:	10e3883a 	add	r17,r2,r3
  801824:	d4677b15 	stw	r17,-25108(gp)
  801828:	08044ac0 	call	8044ac <__umodsi3>
  80182c:	d0e78b17 	ldw	r3,-25044(gp)
  801830:	01808004 	movi	r6,512
  801834:	d809883a 	mov	r4,sp
  801838:	88e3883a 	add	r17,r17,r3
  80183c:	000b883a 	mov	r5,zero
  801840:	d0a76c15 	stw	r2,-25168(gp)
  801844:	0804a800 	call	804a80 <memset>
  801848:	d809883a 	mov	r4,sp
  80184c:	880b883a 	mov	r5,r17
  801850:	01800044 	movi	r6,1
  801854:	0800df40 	call	800df4 <SD_read_lba>
  801858:	d0e78117 	ldw	r3,-25084(gp)
  80185c:	0083fd04 	movi	r2,4084
  801860:	10c01b36 	bltu	r2,r3,8018d0 <CalcFATSecAndOffset+0x100>
  801864:	d0e76c17 	ldw	r3,-25168(gp)
  801868:	00807fc4 	movi	r2,511
  80186c:	18804a26 	beq	r3,r2,801998 <CalcFATSecAndOffset+0x1c8>
  801870:	8080004c 	andi	r2,r16,1
  801874:	1005003a 	cmpeq	r2,r2,zero
  801878:	10003e1e 	bne	r2,zero,801974 <CalcFATSecAndOffset+0x1a4>
  80187c:	d8c5883a 	add	r2,sp,r3
  801880:	10c00043 	ldbu	r3,1(r2)
  801884:	11000003 	ldbu	r4,0(r2)
  801888:	1806923a 	slli	r3,r3,8
  80188c:	20c8b03a 	or	r4,r4,r3
  801890:	200ed13a 	srli	r7,r4,4
  801894:	d1e77215 	stw	r7,-25144(gp)
  801898:	d1e77415 	stw	r7,-25136(gp)
  80189c:	dfc08317 	ldw	ra,524(sp)
  8018a0:	dcc08217 	ldw	r19,520(sp)
  8018a4:	dc408117 	ldw	r17,516(sp)
  8018a8:	dc008017 	ldw	r16,512(sp)
  8018ac:	dec08404 	addi	sp,sp,528
  8018b0:	f800283a 	ret
  8018b4:	00bffd14 	movui	r2,65524
  8018b8:	10c02a2e 	bgeu	r2,r3,801964 <CalcFATSecAndOffset+0x194>
  8018bc:	2105883a 	add	r2,r4,r4
  8018c0:	1085883a 	add	r2,r2,r2
  8018c4:	1023883a 	mov	r17,r2
  8018c8:	d0a75d15 	stw	r2,-25228(gp)
  8018cc:	003fcd06 	br	801804 <CalcFATSecAndOffset+0x34>
  8018d0:	00bffd14 	movui	r2,65524
  8018d4:	10c00e36 	bltu	r2,r3,801910 <CalcFATSecAndOffset+0x140>
  8018d8:	d0e76c17 	ldw	r3,-25168(gp)
  8018dc:	d8c9883a 	add	r4,sp,r3
  8018e0:	20800043 	ldbu	r2,1(r4)
  8018e4:	20c00003 	ldbu	r3,0(r4)
  8018e8:	1004923a 	slli	r2,r2,8
  8018ec:	1886b03a 	or	r3,r3,r2
  8018f0:	d0e77415 	stw	r3,-25136(gp)
  8018f4:	d0e76b15 	stw	r3,-25172(gp)
  8018f8:	dfc08317 	ldw	ra,524(sp)
  8018fc:	dcc08217 	ldw	r19,520(sp)
  801900:	dc408117 	ldw	r17,516(sp)
  801904:	dc008017 	ldw	r16,512(sp)
  801908:	dec08404 	addi	sp,sp,528
  80190c:	f800283a 	ret
  801910:	d0a76c17 	ldw	r2,-25168(gp)
  801914:	d889883a 	add	r4,sp,r2
  801918:	214000c3 	ldbu	r5,3(r4)
  80191c:	20800083 	ldbu	r2,2(r4)
  801920:	21800043 	ldbu	r6,1(r4)
  801924:	280a963a 	slli	r5,r5,24
  801928:	1004943a 	slli	r2,r2,16
  80192c:	300c923a 	slli	r6,r6,8
  801930:	20c00003 	ldbu	r3,0(r4)
  801934:	1144b03a 	or	r2,r2,r5
  801938:	1083ffec 	andhi	r2,r2,4095
  80193c:	1986b03a 	or	r3,r3,r6
  801940:	10c4b03a 	or	r2,r2,r3
  801944:	d0a77415 	stw	r2,-25136(gp)
  801948:	d0a75715 	stw	r2,-25252(gp)
  80194c:	dfc08317 	ldw	ra,524(sp)
  801950:	dcc08217 	ldw	r19,520(sp)
  801954:	dc408117 	ldw	r17,516(sp)
  801958:	dc008017 	ldw	r16,512(sp)
  80195c:	dec08404 	addi	sp,sp,528
  801960:	f800283a 	ret
  801964:	2105883a 	add	r2,r4,r4
  801968:	1023883a 	mov	r17,r2
  80196c:	d0a75d15 	stw	r2,-25228(gp)
  801970:	003fa406 	br	801804 <CalcFATSecAndOffset+0x34>
  801974:	d8c5883a 	add	r2,sp,r3
  801978:	10c00043 	ldbu	r3,1(r2)
  80197c:	11000003 	ldbu	r4,0(r2)
  801980:	1806923a 	slli	r3,r3,8
  801984:	20c8b03a 	or	r4,r4,r3
  801988:	21c3ffcc 	andi	r7,r4,4095
  80198c:	d1e77215 	stw	r7,-25144(gp)
  801990:	d1e77415 	stw	r7,-25136(gp)
  801994:	003fc106 	br	80189c <CalcFATSecAndOffset+0xcc>
  801998:	d1678b17 	ldw	r5,-25044(gp)
  80199c:	d0a77b17 	ldw	r2,-25108(gp)
  8019a0:	d9c07fc3 	ldbu	r7,511(sp)
  8019a4:	29400044 	addi	r5,r5,1
  8019a8:	288b883a 	add	r5,r5,r2
  8019ac:	d809883a 	mov	r4,sp
  8019b0:	01800044 	movi	r6,1
  8019b4:	d1e77215 	stw	r7,-25144(gp)
  8019b8:	0800df40 	call	800df4 <SD_read_lba>
  8019bc:	d8c00003 	ldbu	r3,0(sp)
  8019c0:	d1e77217 	ldw	r7,-25144(gp)
  8019c4:	18c003cc 	andi	r3,r3,15
  8019c8:	1806923a 	slli	r3,r3,8
  8019cc:	38ceb03a 	or	r7,r7,r3
  8019d0:	d1e77215 	stw	r7,-25144(gp)
  8019d4:	d1e77415 	stw	r7,-25136(gp)
  8019d8:	003fb006 	br	80189c <CalcFATSecAndOffset+0xcc>

008019dc <build_cluster_chain>:
  8019dc:	30c00317 	ldw	r3,12(r6)
  8019e0:	defff704 	addi	sp,sp,-36
  8019e4:	dc000015 	stw	r16,0(sp)
  8019e8:	20c00015 	stw	r3,0(r4)
  8019ec:	2021883a 	mov	r16,r4
  8019f0:	1809883a 	mov	r4,r3
  8019f4:	dc800215 	stw	r18,8(sp)
  8019f8:	dfc00815 	stw	ra,32(sp)
  8019fc:	ddc00715 	stw	r23,28(sp)
  801a00:	dd800615 	stw	r22,24(sp)
  801a04:	dd400515 	stw	r21,20(sp)
  801a08:	dd000415 	stw	r20,16(sp)
  801a0c:	dcc00315 	stw	r19,12(sp)
  801a10:	dc400115 	stw	r17,4(sp)
  801a14:	2825883a 	mov	r18,r5
  801a18:	08017d00 	call	8017d0 <CalcFATSecAndOffset>
  801a1c:	00800044 	movi	r2,1
  801a20:	14800f2e 	bgeu	r2,r18,801a60 <build_cluster_chain+0x84>
  801a24:	1023883a 	mov	r17,r2
  801a28:	04c3fd04 	movi	r19,4084
  801a2c:	0543fdc4 	movi	r21,4087
  801a30:	053ffd14 	movui	r20,65524
  801a34:	05fffdd4 	movui	r23,65527
  801a38:	05840034 	movhi	r22,4096
  801a3c:	b5bffdc4 	addi	r22,r22,-9
  801a40:	d1277417 	ldw	r4,-25136(gp)
  801a44:	d0a78117 	ldw	r2,-25084(gp)
  801a48:	81000115 	stw	r4,4(r16)
  801a4c:	98800f36 	bltu	r19,r2,801a8c <build_cluster_chain+0xb0>
  801a50:	a900102e 	bgeu	r21,r4,801a94 <build_cluster_chain+0xb8>
  801a54:	8c400044 	addi	r17,r17,1
  801a58:	84000104 	addi	r16,r16,4
  801a5c:	8cbff81e 	bne	r17,r18,801a40 <build_cluster_chain+0x64>
  801a60:	dfc00817 	ldw	ra,32(sp)
  801a64:	ddc00717 	ldw	r23,28(sp)
  801a68:	dd800617 	ldw	r22,24(sp)
  801a6c:	dd400517 	ldw	r21,20(sp)
  801a70:	dd000417 	ldw	r20,16(sp)
  801a74:	dcc00317 	ldw	r19,12(sp)
  801a78:	dc800217 	ldw	r18,8(sp)
  801a7c:	dc400117 	ldw	r17,4(sp)
  801a80:	dc000017 	ldw	r16,0(sp)
  801a84:	dec00904 	addi	sp,sp,36
  801a88:	f800283a 	ret
  801a8c:	a0800636 	bltu	r20,r2,801aa8 <build_cluster_chain+0xcc>
  801a90:	b93ff036 	bltu	r23,r4,801a54 <build_cluster_chain+0x78>
  801a94:	8c400044 	addi	r17,r17,1
  801a98:	08017d00 	call	8017d0 <CalcFATSecAndOffset>
  801a9c:	84000104 	addi	r16,r16,4
  801aa0:	8cbfe71e 	bne	r17,r18,801a40 <build_cluster_chain+0x64>
  801aa4:	003fee06 	br	801a60 <build_cluster_chain+0x84>
  801aa8:	b13ffa2e 	bgeu	r22,r4,801a94 <build_cluster_chain+0xb8>
  801aac:	8c400044 	addi	r17,r17,1
  801ab0:	84000104 	addi	r16,r16,4
  801ab4:	8cbfe21e 	bne	r17,r18,801a40 <build_cluster_chain+0x64>
  801ab8:	003fe906 	br	801a60 <build_cluster_chain+0x84>

00801abc <playhalf>:
  801abc:	d0a75117 	ldw	r2,-25276(gp)
  801ac0:	deff7704 	addi	sp,sp,-548
  801ac4:	dcc08315 	stw	r19,524(sp)
  801ac8:	04c00044 	movi	r19,1
  801acc:	dfc08815 	stw	ra,544(sp)
  801ad0:	ddc08715 	stw	r23,540(sp)
  801ad4:	dd808615 	stw	r22,536(sp)
  801ad8:	dd408515 	stw	r21,532(sp)
  801adc:	dd008415 	stw	r20,528(sp)
  801ae0:	dc808215 	stw	r18,520(sp)
  801ae4:	dc408115 	stw	r17,516(sp)
  801ae8:	dc008015 	stw	r16,512(sp)
  801aec:	14c07626 	beq	r2,r19,801cc8 <playhalf+0x20c>
  801af0:	d1675517 	ldw	r5,-25260(gp)
  801af4:	04002074 	movhi	r16,129
  801af8:	84103504 	addi	r16,r16,16596
  801afc:	8009883a 	mov	r4,r16
  801b00:	d0275315 	stw	zero,-25268(gp)
  801b04:	d0275415 	stw	zero,-25264(gp)
  801b08:	08004f80 	call	8004f8 <LCD_Display>
  801b0c:	d1275b43 	ldbu	r4,-25235(gp)
  801b10:	d1676e17 	ldw	r5,-25160(gp)
  801b14:	04402074 	movhi	r17,129
  801b18:	8c503f04 	addi	r17,r17,16636
  801b1c:	08044b40 	call	8044b4 <__mulsi3>
  801b20:	81000417 	ldw	r4,16(r16)
  801b24:	100b883a 	mov	r5,r2
  801b28:	08044a40 	call	8044a4 <__udivsi3>
  801b2c:	1009883a 	mov	r4,r2
  801b30:	08041d40 	call	8041d4 <__floatunsidf>
  801b34:	180b883a 	mov	r5,r3
  801b38:	1009883a 	mov	r4,r2
  801b3c:	08035140 	call	803514 <ceil>
  801b40:	0011883a 	mov	r8,zero
  801b44:	024ffc34 	movhi	r9,16368
  801b48:	180b883a 	mov	r5,r3
  801b4c:	480f883a 	mov	r7,r9
  801b50:	1009883a 	mov	r4,r2
  801b54:	400d883a 	mov	r6,r8
  801b58:	0803e800 	call	803e80 <__adddf3>
  801b5c:	1009883a 	mov	r4,r2
  801b60:	180b883a 	mov	r5,r3
  801b64:	080394c0 	call	80394c <__fixunsdfsi>
  801b68:	1025883a 	mov	r18,r2
  801b6c:	80800317 	ldw	r2,12(r16)
  801b70:	1009883a 	mov	r4,r2
  801b74:	88800015 	stw	r2,0(r17)
  801b78:	08017d00 	call	8017d0 <CalcFATSecAndOffset>
  801b7c:	9c80102e 	bgeu	r19,r18,801bc0 <playhalf+0x104>
  801b80:	9821883a 	mov	r16,r19
  801b84:	8c400104 	addi	r17,r17,4
  801b88:	04c3fd04 	movi	r19,4084
  801b8c:	0503fdc4 	movi	r20,4087
  801b90:	057ffd14 	movui	r21,65524
  801b94:	05fffdd4 	movui	r23,65527
  801b98:	05840034 	movhi	r22,4096
  801b9c:	b5bffdc4 	addi	r22,r22,-9
  801ba0:	d1277417 	ldw	r4,-25136(gp)
  801ba4:	d0a78117 	ldw	r2,-25084(gp)
  801ba8:	89000015 	stw	r4,0(r17)
  801bac:	98805136 	bltu	r19,r2,801cf4 <playhalf+0x238>
  801bb0:	a100522e 	bgeu	r20,r4,801cfc <playhalf+0x240>
  801bb4:	84000044 	addi	r16,r16,1
  801bb8:	8c400104 	addi	r17,r17,4
  801bbc:	84bff81e 	bne	r16,r18,801ba0 <playhalf+0xe4>
  801bc0:	d1675b43 	ldbu	r5,-25235(gp)
  801bc4:	9009883a 	mov	r4,r18
  801bc8:	08044b40 	call	8044b4 <__mulsi3>
  801bcc:	1027883a 	mov	r19,r2
  801bd0:	00803d0e 	bge	zero,r2,801cc8 <playhalf+0x20c>
  801bd4:	d0e75117 	ldw	r3,-25276(gp)
  801bd8:	00800044 	movi	r2,1
  801bdc:	18803a26 	beq	r3,r2,801cc8 <playhalf+0x20c>
  801be0:	d809883a 	mov	r4,sp
  801be4:	000b883a 	mov	r5,zero
  801be8:	01808004 	movi	r6,512
  801bec:	0804a800 	call	804a80 <memset>
  801bf0:	0025883a 	mov	r18,zero
  801bf4:	04404034 	movhi	r17,256
  801bf8:	8c443c04 	addi	r17,r17,4336
  801bfc:	04004034 	movhi	r16,256
  801c00:	84045004 	addi	r16,r16,4416
  801c04:	01002074 	movhi	r4,129
  801c08:	21103504 	addi	r4,r4,16596
  801c0c:	900f883a 	mov	r7,r18
  801c10:	d80b883a 	mov	r5,sp
  801c14:	01802074 	movhi	r6,129
  801c18:	31903f04 	addi	r6,r6,16636
  801c1c:	080106c0 	call	80106c <get_rel_sector>
  801c20:	d2276e17 	ldw	r8,-25160(gp)
  801c24:	d0e75817 	ldw	r3,-25248(gp)
  801c28:	d1276a17 	ldw	r4,-25176(gp)
  801c2c:	000f883a 	mov	r7,zero
  801c30:	3a001e2e 	bgeu	r7,r8,801cac <playhalf+0x1f0>
  801c34:	88800037 	ldwio	r2,0(r17)
  801c38:	103ffd1e 	bne	r2,zero,801c30 <playhalf+0x174>
  801c3c:	3ec5883a 	add	r2,r7,sp
  801c40:	10c00043 	ldbu	r3,1(r2)
  801c44:	110000c3 	ldbu	r4,3(r2)
  801c48:	11800003 	ldbu	r6,0(r2)
  801c4c:	1806923a 	slli	r3,r3,8
  801c50:	11400083 	ldbu	r5,2(r2)
  801c54:	2008923a 	slli	r4,r4,8
  801c58:	1986b03a 	or	r3,r3,r6
  801c5c:	180d883a 	mov	r6,r3
  801c60:	2148b03a 	or	r4,r4,r5
  801c64:	80c00035 	stwio	r3,0(r16)
  801c68:	01404034 	movhi	r5,256
  801c6c:	29443c04 	addi	r5,r5,4336
  801c70:	28800037 	ldwio	r2,0(r5)
  801c74:	103ffe1e 	bne	r2,zero,801c70 <playhalf+0x1b4>
  801c78:	81000035 	stwio	r4,0(r16)
  801c7c:	01404034 	movhi	r5,256
  801c80:	29443c04 	addi	r5,r5,4336
  801c84:	28800037 	ldwio	r2,0(r5)
  801c88:	103ffe1e 	bne	r2,zero,801c84 <playhalf+0x1c8>
  801c8c:	81800035 	stwio	r6,0(r16)
  801c90:	01404034 	movhi	r5,256
  801c94:	29443c04 	addi	r5,r5,4336
  801c98:	28800037 	ldwio	r2,0(r5)
  801c9c:	103ffe1e 	bne	r2,zero,801c98 <playhalf+0x1dc>
  801ca0:	81000035 	stwio	r4,0(r16)
  801ca4:	39c00104 	addi	r7,r7,4
  801ca8:	3a3fe236 	bltu	r7,r8,801c34 <playhalf+0x178>
  801cac:	94800044 	addi	r18,r18,1
  801cb0:	d1276a15 	stw	r4,-25176(gp)
  801cb4:	d0e75815 	stw	r3,-25248(gp)
  801cb8:	9c800326 	beq	r19,r18,801cc8 <playhalf+0x20c>
  801cbc:	d0e75117 	ldw	r3,-25276(gp)
  801cc0:	00800044 	movi	r2,1
  801cc4:	18bfcf1e 	bne	r3,r2,801c04 <playhalf+0x148>
  801cc8:	dfc08817 	ldw	ra,544(sp)
  801ccc:	ddc08717 	ldw	r23,540(sp)
  801cd0:	dd808617 	ldw	r22,536(sp)
  801cd4:	dd408517 	ldw	r21,532(sp)
  801cd8:	dd008417 	ldw	r20,528(sp)
  801cdc:	dcc08317 	ldw	r19,524(sp)
  801ce0:	dc808217 	ldw	r18,520(sp)
  801ce4:	dc408117 	ldw	r17,516(sp)
  801ce8:	dc008017 	ldw	r16,512(sp)
  801cec:	dec08904 	addi	sp,sp,548
  801cf0:	f800283a 	ret
  801cf4:	a8800636 	bltu	r21,r2,801d10 <playhalf+0x254>
  801cf8:	b93fae36 	bltu	r23,r4,801bb4 <playhalf+0xf8>
  801cfc:	84000044 	addi	r16,r16,1
  801d00:	08017d00 	call	8017d0 <CalcFATSecAndOffset>
  801d04:	8c400104 	addi	r17,r17,4
  801d08:	84bfa51e 	bne	r16,r18,801ba0 <playhalf+0xe4>
  801d0c:	003fac06 	br	801bc0 <playhalf+0x104>
  801d10:	b13ffa2e 	bgeu	r22,r4,801cfc <playhalf+0x240>
  801d14:	84000044 	addi	r16,r16,1
  801d18:	8c400104 	addi	r17,r17,4
  801d1c:	84bfa01e 	bne	r16,r18,801ba0 <playhalf+0xe4>
  801d20:	003fa706 	br	801bc0 <playhalf+0x104>

00801d24 <playdouble>:
  801d24:	d0a75117 	ldw	r2,-25276(gp)
  801d28:	deff7704 	addi	sp,sp,-548
  801d2c:	dcc08315 	stw	r19,524(sp)
  801d30:	04c00044 	movi	r19,1
  801d34:	dfc08815 	stw	ra,544(sp)
  801d38:	ddc08715 	stw	r23,540(sp)
  801d3c:	dd808615 	stw	r22,536(sp)
  801d40:	dd408515 	stw	r21,532(sp)
  801d44:	dd008415 	stw	r20,528(sp)
  801d48:	dc808215 	stw	r18,520(sp)
  801d4c:	dc408115 	stw	r17,516(sp)
  801d50:	dc008015 	stw	r16,512(sp)
  801d54:	14c06626 	beq	r2,r19,801ef0 <playdouble+0x1cc>
  801d58:	d1675517 	ldw	r5,-25260(gp)
  801d5c:	04002074 	movhi	r16,129
  801d60:	84103504 	addi	r16,r16,16596
  801d64:	8009883a 	mov	r4,r16
  801d68:	d0275315 	stw	zero,-25268(gp)
  801d6c:	d0275415 	stw	zero,-25264(gp)
  801d70:	08004f80 	call	8004f8 <LCD_Display>
  801d74:	d1275b43 	ldbu	r4,-25235(gp)
  801d78:	d1676e17 	ldw	r5,-25160(gp)
  801d7c:	04402074 	movhi	r17,129
  801d80:	8c503f04 	addi	r17,r17,16636
  801d84:	08044b40 	call	8044b4 <__mulsi3>
  801d88:	81000417 	ldw	r4,16(r16)
  801d8c:	100b883a 	mov	r5,r2
  801d90:	08044a40 	call	8044a4 <__udivsi3>
  801d94:	1009883a 	mov	r4,r2
  801d98:	08041d40 	call	8041d4 <__floatunsidf>
  801d9c:	180b883a 	mov	r5,r3
  801da0:	1009883a 	mov	r4,r2
  801da4:	08035140 	call	803514 <ceil>
  801da8:	0011883a 	mov	r8,zero
  801dac:	024ffc34 	movhi	r9,16368
  801db0:	180b883a 	mov	r5,r3
  801db4:	480f883a 	mov	r7,r9
  801db8:	1009883a 	mov	r4,r2
  801dbc:	400d883a 	mov	r6,r8
  801dc0:	0803e800 	call	803e80 <__adddf3>
  801dc4:	1009883a 	mov	r4,r2
  801dc8:	180b883a 	mov	r5,r3
  801dcc:	080394c0 	call	80394c <__fixunsdfsi>
  801dd0:	1025883a 	mov	r18,r2
  801dd4:	80800317 	ldw	r2,12(r16)
  801dd8:	1009883a 	mov	r4,r2
  801ddc:	88800015 	stw	r2,0(r17)
  801de0:	08017d00 	call	8017d0 <CalcFATSecAndOffset>
  801de4:	9c80102e 	bgeu	r19,r18,801e28 <playdouble+0x104>
  801de8:	9821883a 	mov	r16,r19
  801dec:	8c400104 	addi	r17,r17,4
  801df0:	04c3fd04 	movi	r19,4084
  801df4:	0503fdc4 	movi	r20,4087
  801df8:	057ffd14 	movui	r21,65524
  801dfc:	05fffdd4 	movui	r23,65527
  801e00:	05840034 	movhi	r22,4096
  801e04:	b5bffdc4 	addi	r22,r22,-9
  801e08:	d1277417 	ldw	r4,-25136(gp)
  801e0c:	d0a78117 	ldw	r2,-25084(gp)
  801e10:	89000015 	stw	r4,0(r17)
  801e14:	98804136 	bltu	r19,r2,801f1c <playdouble+0x1f8>
  801e18:	a100422e 	bgeu	r20,r4,801f24 <playdouble+0x200>
  801e1c:	84000044 	addi	r16,r16,1
  801e20:	8c400104 	addi	r17,r17,4
  801e24:	84bff81e 	bne	r16,r18,801e08 <playdouble+0xe4>
  801e28:	d1675b43 	ldbu	r5,-25235(gp)
  801e2c:	9009883a 	mov	r4,r18
  801e30:	08044b40 	call	8044b4 <__mulsi3>
  801e34:	1027883a 	mov	r19,r2
  801e38:	00802d0e 	bge	zero,r2,801ef0 <playdouble+0x1cc>
  801e3c:	d0e75117 	ldw	r3,-25276(gp)
  801e40:	00800044 	movi	r2,1
  801e44:	18802a26 	beq	r3,r2,801ef0 <playdouble+0x1cc>
  801e48:	d809883a 	mov	r4,sp
  801e4c:	000b883a 	mov	r5,zero
  801e50:	01808004 	movi	r6,512
  801e54:	0804a800 	call	804a80 <memset>
  801e58:	0023883a 	mov	r17,zero
  801e5c:	04004034 	movhi	r16,256
  801e60:	84043c04 	addi	r16,r16,4336
  801e64:	04804034 	movhi	r18,256
  801e68:	94845004 	addi	r18,r18,4416
  801e6c:	d80b883a 	mov	r5,sp
  801e70:	01802074 	movhi	r6,129
  801e74:	31903f04 	addi	r6,r6,16636
  801e78:	880f883a 	mov	r7,r17
  801e7c:	01002074 	movhi	r4,129
  801e80:	21103504 	addi	r4,r4,16596
  801e84:	080106c0 	call	80106c <get_rel_sector>
  801e88:	d1a76e17 	ldw	r6,-25160(gp)
  801e8c:	d1e76a17 	ldw	r7,-25176(gp)
  801e90:	d0e75817 	ldw	r3,-25248(gp)
  801e94:	000b883a 	mov	r5,zero
  801e98:	29800f2e 	bgeu	r5,r6,801ed8 <playdouble+0x1b4>
  801e9c:	80800037 	ldwio	r2,0(r16)
  801ea0:	103ffd1e 	bne	r2,zero,801e98 <playdouble+0x174>
  801ea4:	2ec5883a 	add	r2,r5,sp
  801ea8:	10c000c3 	ldbu	r3,3(r2)
  801eac:	11000083 	ldbu	r4,2(r2)
  801eb0:	1806923a 	slli	r3,r3,8
  801eb4:	1906b03a 	or	r3,r3,r4
  801eb8:	90c00035 	stwio	r3,0(r18)
  801ebc:	01004034 	movhi	r4,256
  801ec0:	21043c04 	addi	r4,r4,4336
  801ec4:	20800037 	ldwio	r2,0(r4)
  801ec8:	103ffe1e 	bne	r2,zero,801ec4 <playdouble+0x1a0>
  801ecc:	91c00035 	stwio	r7,0(r18)
  801ed0:	29400204 	addi	r5,r5,8
  801ed4:	29bff136 	bltu	r5,r6,801e9c <playdouble+0x178>
  801ed8:	8c400044 	addi	r17,r17,1
  801edc:	d0e75815 	stw	r3,-25248(gp)
  801ee0:	9c400326 	beq	r19,r17,801ef0 <playdouble+0x1cc>
  801ee4:	d0e75117 	ldw	r3,-25276(gp)
  801ee8:	00800044 	movi	r2,1
  801eec:	18bfdf1e 	bne	r3,r2,801e6c <playdouble+0x148>
  801ef0:	dfc08817 	ldw	ra,544(sp)
  801ef4:	ddc08717 	ldw	r23,540(sp)
  801ef8:	dd808617 	ldw	r22,536(sp)
  801efc:	dd408517 	ldw	r21,532(sp)
  801f00:	dd008417 	ldw	r20,528(sp)
  801f04:	dcc08317 	ldw	r19,524(sp)
  801f08:	dc808217 	ldw	r18,520(sp)
  801f0c:	dc408117 	ldw	r17,516(sp)
  801f10:	dc008017 	ldw	r16,512(sp)
  801f14:	dec08904 	addi	sp,sp,548
  801f18:	f800283a 	ret
  801f1c:	a8800636 	bltu	r21,r2,801f38 <playdouble+0x214>
  801f20:	b93fbe36 	bltu	r23,r4,801e1c <playdouble+0xf8>
  801f24:	84000044 	addi	r16,r16,1
  801f28:	08017d00 	call	8017d0 <CalcFATSecAndOffset>
  801f2c:	8c400104 	addi	r17,r17,4
  801f30:	84bfb51e 	bne	r16,r18,801e08 <playdouble+0xe4>
  801f34:	003fbc06 	br	801e28 <playdouble+0x104>
  801f38:	b13ffa2e 	bgeu	r22,r4,801f24 <playdouble+0x200>
  801f3c:	84000044 	addi	r16,r16,1
  801f40:	8c400104 	addi	r17,r17,4
  801f44:	84bfb01e 	bne	r16,r18,801e08 <playdouble+0xe4>
  801f48:	003fb706 	br	801e28 <playdouble+0x104>

00801f4c <playdelay>:
  801f4c:	d0a75117 	ldw	r2,-25276(gp)
  801f50:	defff604 	addi	sp,sp,-40
  801f54:	dcc00315 	stw	r19,12(sp)
  801f58:	023ffff4 	movhi	r8,65535
  801f5c:	42146e04 	addi	r8,r8,20920
  801f60:	04c00044 	movi	r19,1
  801f64:	dfc00915 	stw	ra,36(sp)
  801f68:	df000815 	stw	fp,32(sp)
  801f6c:	ddc00715 	stw	r23,28(sp)
  801f70:	dd800615 	stw	r22,24(sp)
  801f74:	dd400515 	stw	r21,20(sp)
  801f78:	dd000415 	stw	r20,16(sp)
  801f7c:	dc800215 	stw	r18,8(sp)
  801f80:	dc400115 	stw	r17,4(sp)
  801f84:	dc000015 	stw	r16,0(sp)
  801f88:	da37883a 	add	sp,sp,r8
  801f8c:	14c09226 	beq	r2,r19,8021d8 <playdelay+0x28c>
  801f90:	d1675517 	ldw	r5,-25260(gp)
  801f94:	04002074 	movhi	r16,129
  801f98:	84103504 	addi	r16,r16,16596
  801f9c:	8009883a 	mov	r4,r16
  801fa0:	d0275315 	stw	zero,-25268(gp)
  801fa4:	d0275415 	stw	zero,-25264(gp)
  801fa8:	08004f80 	call	8004f8 <LCD_Display>
  801fac:	d1275b43 	ldbu	r4,-25235(gp)
  801fb0:	d1676e17 	ldw	r5,-25160(gp)
  801fb4:	04402074 	movhi	r17,129
  801fb8:	8c503f04 	addi	r17,r17,16636
  801fbc:	08044b40 	call	8044b4 <__mulsi3>
  801fc0:	81000417 	ldw	r4,16(r16)
  801fc4:	100b883a 	mov	r5,r2
  801fc8:	08044a40 	call	8044a4 <__udivsi3>
  801fcc:	1009883a 	mov	r4,r2
  801fd0:	08041d40 	call	8041d4 <__floatunsidf>
  801fd4:	180b883a 	mov	r5,r3
  801fd8:	1009883a 	mov	r4,r2
  801fdc:	08035140 	call	803514 <ceil>
  801fe0:	0011883a 	mov	r8,zero
  801fe4:	024ffc34 	movhi	r9,16368
  801fe8:	180b883a 	mov	r5,r3
  801fec:	480f883a 	mov	r7,r9
  801ff0:	1009883a 	mov	r4,r2
  801ff4:	400d883a 	mov	r6,r8
  801ff8:	0803e800 	call	803e80 <__adddf3>
  801ffc:	1009883a 	mov	r4,r2
  802000:	180b883a 	mov	r5,r3
  802004:	080394c0 	call	80394c <__fixunsdfsi>
  802008:	1025883a 	mov	r18,r2
  80200c:	80800317 	ldw	r2,12(r16)
  802010:	1009883a 	mov	r4,r2
  802014:	88800015 	stw	r2,0(r17)
  802018:	08017d00 	call	8017d0 <CalcFATSecAndOffset>
  80201c:	9c80102e 	bgeu	r19,r18,802060 <playdelay+0x114>
  802020:	9821883a 	mov	r16,r19
  802024:	8c400104 	addi	r17,r17,4
  802028:	04c3fd04 	movi	r19,4084
  80202c:	0503fdc4 	movi	r20,4087
  802030:	057ffd14 	movui	r21,65524
  802034:	05fffdd4 	movui	r23,65527
  802038:	05840034 	movhi	r22,4096
  80203c:	b5bffdc4 	addi	r22,r22,-9
  802040:	d1277417 	ldw	r4,-25136(gp)
  802044:	d0a78117 	ldw	r2,-25084(gp)
  802048:	89000015 	stw	r4,0(r17)
  80204c:	98807036 	bltu	r19,r2,802210 <playdelay+0x2c4>
  802050:	a100712e 	bgeu	r20,r4,802218 <playdelay+0x2cc>
  802054:	84000044 	addi	r16,r16,1
  802058:	8c400104 	addi	r17,r17,4
  80205c:	84bff81e 	bne	r16,r18,802040 <playdelay+0xf4>
  802060:	01808004 	movi	r6,512
  802064:	d9b9883a 	add	fp,sp,r6
  802068:	d809883a 	mov	r4,sp
  80206c:	000b883a 	mov	r5,zero
  802070:	0804a800 	call	804a80 <memset>
  802074:	000b883a 	mov	r5,zero
  802078:	01ab1114 	movui	r6,44100
  80207c:	e009883a 	mov	r4,fp
  802080:	0804a800 	call	804a80 <memset>
  802084:	d1675b43 	ldbu	r5,-25235(gp)
  802088:	9009883a 	mov	r4,r18
  80208c:	08044b40 	call	8044b4 <__mulsi3>
  802090:	00eb9114 	movui	r3,44612
  802094:	1ec7883a 	add	r3,r3,sp
  802098:	18800015 	stw	r2,0(r3)
  80209c:	00806d0e 	bge	zero,r2,802254 <playdelay+0x308>
  8020a0:	d0e75117 	ldw	r3,-25276(gp)
  8020a4:	00800044 	movi	r2,1
  8020a8:	18804b26 	beq	r3,r2,8021d8 <playdelay+0x28c>
  8020ac:	002f883a 	mov	r23,zero
  8020b0:	0021883a 	mov	r16,zero
  8020b4:	01002074 	movhi	r4,129
  8020b8:	21103504 	addi	r4,r4,16596
  8020bc:	d80b883a 	mov	r5,sp
  8020c0:	01802074 	movhi	r6,129
  8020c4:	31903f04 	addi	r6,r6,16636
  8020c8:	b80f883a 	mov	r7,r23
  8020cc:	080106c0 	call	80106c <get_rel_sector>
  8020d0:	d5276e17 	ldw	r20,-25160(gp)
  8020d4:	d4e75817 	ldw	r19,-25248(gp)
  8020d8:	d5a76a17 	ldw	r22,-25176(gp)
  8020dc:	0025883a 	mov	r18,zero
  8020e0:	dc400084 	addi	r17,sp,2
  8020e4:	dd4000c4 	addi	r21,sp,3
  8020e8:	9500312e 	bgeu	r18,r20,8021b0 <playdelay+0x264>
  8020ec:	01804034 	movhi	r6,256
  8020f0:	31843c04 	addi	r6,r6,4336
  8020f4:	30800037 	ldwio	r2,0(r6)
  8020f8:	103ffb1e 	bne	r2,zero,8020e8 <playdelay+0x19c>
  8020fc:	88bfffc3 	ldbu	r2,-1(r17)
  802100:	88c00043 	ldbu	r3,1(r17)
  802104:	897fff83 	ldbu	r5,-2(r17)
  802108:	1004923a 	slli	r2,r2,8
  80210c:	1806923a 	slli	r3,r3,8
  802110:	89000003 	ldbu	r4,0(r17)
  802114:	1166b03a 	or	r19,r2,r5
  802118:	00804034 	movhi	r2,256
  80211c:	10845004 	addi	r2,r2,4416
  802120:	192cb03a 	or	r22,r3,r4
  802124:	14c00035 	stwio	r19,0(r2)
  802128:	3007883a 	mov	r3,r6
  80212c:	18800037 	ldwio	r2,0(r3)
  802130:	103ffe1e 	bne	r2,zero,80212c <playdelay+0x1e0>
  802134:	81000044 	addi	r4,r16,1
  802138:	e109883a 	add	r4,fp,r4
  80213c:	20800003 	ldbu	r2,0(r4)
  802140:	e40b883a 	add	r5,fp,r16
  802144:	28c00003 	ldbu	r3,0(r5)
  802148:	1004923a 	slli	r2,r2,8
  80214c:	10c4b03a 	or	r2,r2,r3
  802150:	00c04034 	movhi	r3,256
  802154:	18c45004 	addi	r3,r3,4416
  802158:	18800035 	stwio	r2,0(r3)
  80215c:	88c00003 	ldbu	r3,0(r17)
  802160:	a8800003 	ldbu	r2,0(r21)
  802164:	84000084 	addi	r16,r16,2
  802168:	28c00005 	stb	r3,0(r5)
  80216c:	20800005 	stb	r2,0(r4)
  802170:	81ab1114 	ori	r6,r16,44100
  802174:	008003c4 	movi	r2,15
  802178:	94800104 	addi	r18,r18,4
  80217c:	ad400104 	addi	r21,r21,4
  802180:	8c400104 	addi	r17,r17,4
  802184:	11802936 	bltu	r2,r6,80222c <playdelay+0x2e0>
  802188:	8004913a 	slli	r2,r16,4
  80218c:	00c02074 	movhi	r3,129
  802190:	18c17e04 	addi	r3,r3,1528
  802194:	10ab1114 	ori	r2,r2,44100
  802198:	10c5883a 	add	r2,r2,r3
  80219c:	11000003 	ldbu	r4,0(r2)
  8021a0:	016b1114 	movui	r5,44100
  8021a4:	08044b40 	call	8044b4 <__mulsi3>
  8021a8:	80a1c83a 	sub	r16,r16,r2
  8021ac:	953fcf36 	bltu	r18,r20,8020ec <playdelay+0x1a0>
  8021b0:	00ab9114 	movui	r2,44612
  8021b4:	16c5883a 	add	r2,r2,sp
  8021b8:	10800017 	ldw	r2,0(r2)
  8021bc:	bdc00044 	addi	r23,r23,1
  8021c0:	d5a76a15 	stw	r22,-25176(gp)
  8021c4:	d4e75815 	stw	r19,-25248(gp)
  8021c8:	15c02226 	beq	r2,r23,802254 <playdelay+0x308>
  8021cc:	d0e75117 	ldw	r3,-25276(gp)
  8021d0:	00800044 	movi	r2,1
  8021d4:	18bfb71e 	bne	r3,r2,8020b4 <playdelay+0x168>
  8021d8:	022b9214 	movui	r8,44616
  8021dc:	da37883a 	add	sp,sp,r8
  8021e0:	dfc00917 	ldw	ra,36(sp)
  8021e4:	df000817 	ldw	fp,32(sp)
  8021e8:	ddc00717 	ldw	r23,28(sp)
  8021ec:	dd800617 	ldw	r22,24(sp)
  8021f0:	dd400517 	ldw	r21,20(sp)
  8021f4:	dd000417 	ldw	r20,16(sp)
  8021f8:	dcc00317 	ldw	r19,12(sp)
  8021fc:	dc800217 	ldw	r18,8(sp)
  802200:	dc400117 	ldw	r17,4(sp)
  802204:	dc000017 	ldw	r16,0(sp)
  802208:	dec00a04 	addi	sp,sp,40
  80220c:	f800283a 	ret
  802210:	a8800b36 	bltu	r21,r2,802240 <playdelay+0x2f4>
  802214:	b93f8f36 	bltu	r23,r4,802054 <playdelay+0x108>
  802218:	84000044 	addi	r16,r16,1
  80221c:	08017d00 	call	8017d0 <CalcFATSecAndOffset>
  802220:	8c400104 	addi	r17,r17,4
  802224:	84bf861e 	bne	r16,r18,802040 <playdelay+0xf4>
  802228:	003f8d06 	br	802060 <playdelay+0x114>
  80222c:	8009883a 	mov	r4,r16
  802230:	016b1114 	movui	r5,44100
  802234:	08043e40 	call	8043e4 <__divsi3>
  802238:	1009883a 	mov	r4,r2
  80223c:	003fd806 	br	8021a0 <playdelay+0x254>
  802240:	b13ff52e 	bgeu	r22,r4,802218 <playdelay+0x2cc>
  802244:	84000044 	addi	r16,r16,1
  802248:	8c400104 	addi	r17,r17,4
  80224c:	84bf7c1e 	bne	r16,r18,802040 <playdelay+0xf4>
  802250:	003f8306 	br	802060 <playdelay+0x114>
  802254:	d0e75117 	ldw	r3,-25276(gp)
  802258:	00800044 	movi	r2,1
  80225c:	18bfde26 	beq	r3,r2,8021d8 <playdelay+0x28c>
  802260:	000d883a 	mov	r6,zero
  802264:	d9c08044 	addi	r7,sp,513
  802268:	00c04034 	movhi	r3,256
  80226c:	18c43c04 	addi	r3,r3,4336
  802270:	18800037 	ldwio	r2,0(r3)
  802274:	103ffc1e 	bne	r2,zero,802268 <playdelay+0x31c>
  802278:	00804034 	movhi	r2,256
  80227c:	10845004 	addi	r2,r2,4416
  802280:	10000035 	stwio	zero,0(r2)
  802284:	18800037 	ldwio	r2,0(r3)
  802288:	103ffe1e 	bne	r2,zero,802284 <playdelay+0x338>
  80228c:	3985883a 	add	r2,r7,r6
  802290:	10c00003 	ldbu	r3,0(r2)
  802294:	e189883a 	add	r4,fp,r6
  802298:	21400003 	ldbu	r5,0(r4)
  80229c:	1806923a 	slli	r3,r3,8
  8022a0:	00804034 	movhi	r2,256
  8022a4:	10845004 	addi	r2,r2,4416
  8022a8:	1946b03a 	or	r3,r3,r5
  8022ac:	10c00035 	stwio	r3,0(r2)
  8022b0:	31800084 	addi	r6,r6,2
  8022b4:	00ab10d4 	movui	r2,44099
  8022b8:	11bfeb0e 	bge	r2,r6,802268 <playdelay+0x31c>
  8022bc:	003fc606 	br	8021d8 <playdelay+0x28c>

008022c0 <playreverse>:
  8022c0:	d0a75117 	ldw	r2,-25276(gp)
  8022c4:	deff7604 	addi	sp,sp,-552
  8022c8:	dc008015 	stw	r16,512(sp)
  8022cc:	04000044 	movi	r16,1
  8022d0:	dfc08915 	stw	ra,548(sp)
  8022d4:	df008815 	stw	fp,544(sp)
  8022d8:	ddc08715 	stw	r23,540(sp)
  8022dc:	dd808615 	stw	r22,536(sp)
  8022e0:	dd408515 	stw	r21,532(sp)
  8022e4:	dd008415 	stw	r20,528(sp)
  8022e8:	dcc08315 	stw	r19,524(sp)
  8022ec:	dc808215 	stw	r18,520(sp)
  8022f0:	dc408115 	stw	r17,516(sp)
  8022f4:	14006126 	beq	r2,r16,80247c <playreverse+0x1bc>
  8022f8:	d1675517 	ldw	r5,-25260(gp)
  8022fc:	07002074 	movhi	fp,129
  802300:	e7103504 	addi	fp,fp,16596
  802304:	e009883a 	mov	r4,fp
  802308:	d0275315 	stw	zero,-25268(gp)
  80230c:	d0275415 	stw	zero,-25264(gp)
  802310:	08004f80 	call	8004f8 <LCD_Display>
  802314:	d1275b43 	ldbu	r4,-25235(gp)
  802318:	d1676e17 	ldw	r5,-25160(gp)
  80231c:	04402074 	movhi	r17,129
  802320:	8c503f04 	addi	r17,r17,16636
  802324:	08044b40 	call	8044b4 <__mulsi3>
  802328:	e1000417 	ldw	r4,16(fp)
  80232c:	100b883a 	mov	r5,r2
  802330:	08044a40 	call	8044a4 <__udivsi3>
  802334:	1009883a 	mov	r4,r2
  802338:	08041d40 	call	8041d4 <__floatunsidf>
  80233c:	180b883a 	mov	r5,r3
  802340:	1009883a 	mov	r4,r2
  802344:	08035140 	call	803514 <ceil>
  802348:	0011883a 	mov	r8,zero
  80234c:	024ffc34 	movhi	r9,16368
  802350:	180b883a 	mov	r5,r3
  802354:	480f883a 	mov	r7,r9
  802358:	1009883a 	mov	r4,r2
  80235c:	400d883a 	mov	r6,r8
  802360:	0803e800 	call	803e80 <__adddf3>
  802364:	1009883a 	mov	r4,r2
  802368:	180b883a 	mov	r5,r3
  80236c:	080394c0 	call	80394c <__fixunsdfsi>
  802370:	1025883a 	mov	r18,r2
  802374:	e0800317 	ldw	r2,12(fp)
  802378:	1009883a 	mov	r4,r2
  80237c:	88800015 	stw	r2,0(r17)
  802380:	08017d00 	call	8017d0 <CalcFATSecAndOffset>
  802384:	84800f2e 	bgeu	r16,r18,8023c4 <playreverse+0x104>
  802388:	8c400104 	addi	r17,r17,4
  80238c:	04c3fd04 	movi	r19,4084
  802390:	0503fdc4 	movi	r20,4087
  802394:	057ffd14 	movui	r21,65524
  802398:	05fffdd4 	movui	r23,65527
  80239c:	05840034 	movhi	r22,4096
  8023a0:	b5bffdc4 	addi	r22,r22,-9
  8023a4:	d1277417 	ldw	r4,-25136(gp)
  8023a8:	d0a78117 	ldw	r2,-25084(gp)
  8023ac:	89000015 	stw	r4,0(r17)
  8023b0:	98803e36 	bltu	r19,r2,8024ac <playreverse+0x1ec>
  8023b4:	a1003f2e 	bgeu	r20,r4,8024b4 <playreverse+0x1f4>
  8023b8:	84000044 	addi	r16,r16,1
  8023bc:	8c400104 	addi	r17,r17,4
  8023c0:	943ff81e 	bne	r18,r16,8023a4 <playreverse+0xe4>
  8023c4:	d1676e17 	ldw	r5,-25160(gp)
  8023c8:	e1000417 	ldw	r4,16(fp)
  8023cc:	08044a40 	call	8044a4 <__udivsi3>
  8023d0:	1009883a 	mov	r4,r2
  8023d4:	08041d40 	call	8041d4 <__floatunsidf>
  8023d8:	180b883a 	mov	r5,r3
  8023dc:	1009883a 	mov	r4,r2
  8023e0:	08035140 	call	803514 <ceil>
  8023e4:	180b883a 	mov	r5,r3
  8023e8:	1009883a 	mov	r4,r2
  8023ec:	08040fc0 	call	8040fc <__fixdfsi>
  8023f0:	143fffc4 	addi	r16,r2,-1
  8023f4:	80002116 	blt	r16,zero,80247c <playreverse+0x1bc>
  8023f8:	d0a75117 	ldw	r2,-25276(gp)
  8023fc:	04400044 	movi	r17,1
  802400:	14401e26 	beq	r2,r17,80247c <playreverse+0x1bc>
  802404:	d809883a 	mov	r4,sp
  802408:	000b883a 	mov	r5,zero
  80240c:	01808004 	movi	r6,512
  802410:	0804a800 	call	804a80 <memset>
  802414:	04bfffc4 	movi	r18,-1
  802418:	800f883a 	mov	r7,r16
  80241c:	01002074 	movhi	r4,129
  802420:	21103504 	addi	r4,r4,16596
  802424:	d80b883a 	mov	r5,sp
  802428:	01802074 	movhi	r6,129
  80242c:	31903f04 	addi	r6,r6,16636
  802430:	080106c0 	call	80106c <get_rel_sector>
  802434:	d0e76e17 	ldw	r3,-25160(gp)
  802438:	19ffff04 	addi	r7,r3,-4
  80243c:	38000b16 	blt	r7,zero,80246c <playreverse+0x1ac>
  802440:	d1275817 	ldw	r4,-25248(gp)
  802444:	d0e76a17 	ldw	r3,-25176(gp)
  802448:	02004034 	movhi	r8,256
  80244c:	42043c04 	addi	r8,r8,4336
  802450:	02404034 	movhi	r9,256
  802454:	4a445004 	addi	r9,r9,4416
  802458:	40800037 	ldwio	r2,0(r8)
  80245c:	10001a26 	beq	r2,zero,8024c8 <playreverse+0x208>
  802460:	383ffd0e 	bge	r7,zero,802458 <playreverse+0x198>
  802464:	d0e76a15 	stw	r3,-25176(gp)
  802468:	d1275815 	stw	r4,-25248(gp)
  80246c:	843fffc4 	addi	r16,r16,-1
  802470:	84800226 	beq	r16,r18,80247c <playreverse+0x1bc>
  802474:	d0a75117 	ldw	r2,-25276(gp)
  802478:	147fe71e 	bne	r2,r17,802418 <playreverse+0x158>
  80247c:	dfc08917 	ldw	ra,548(sp)
  802480:	df008817 	ldw	fp,544(sp)
  802484:	ddc08717 	ldw	r23,540(sp)
  802488:	dd808617 	ldw	r22,536(sp)
  80248c:	dd408517 	ldw	r21,532(sp)
  802490:	dd008417 	ldw	r20,528(sp)
  802494:	dcc08317 	ldw	r19,524(sp)
  802498:	dc808217 	ldw	r18,520(sp)
  80249c:	dc408117 	ldw	r17,516(sp)
  8024a0:	dc008017 	ldw	r16,512(sp)
  8024a4:	dec08a04 	addi	sp,sp,552
  8024a8:	f800283a 	ret
  8024ac:	a8801936 	bltu	r21,r2,802514 <playreverse+0x254>
  8024b0:	b93fc136 	bltu	r23,r4,8023b8 <playreverse+0xf8>
  8024b4:	84000044 	addi	r16,r16,1
  8024b8:	08017d00 	call	8017d0 <CalcFATSecAndOffset>
  8024bc:	8c400104 	addi	r17,r17,4
  8024c0:	943fb81e 	bne	r18,r16,8023a4 <playreverse+0xe4>
  8024c4:	003fbf06 	br	8023c4 <playreverse+0x104>
  8024c8:	3ec5883a 	add	r2,r7,sp
  8024cc:	10c000c3 	ldbu	r3,3(r2)
  8024d0:	11000043 	ldbu	r4,1(r2)
  8024d4:	11800083 	ldbu	r6,2(r2)
  8024d8:	1806923a 	slli	r3,r3,8
  8024dc:	11400003 	ldbu	r5,0(r2)
  8024e0:	2008923a 	slli	r4,r4,8
  8024e4:	1986b03a 	or	r3,r3,r6
  8024e8:	180d883a 	mov	r6,r3
  8024ec:	2148b03a 	or	r4,r4,r5
  8024f0:	49000035 	stwio	r4,0(r9)
  8024f4:	01404034 	movhi	r5,256
  8024f8:	29443c04 	addi	r5,r5,4336
  8024fc:	28800037 	ldwio	r2,0(r5)
  802500:	103ffe1e 	bne	r2,zero,8024fc <playreverse+0x23c>
  802504:	49800035 	stwio	r6,0(r9)
  802508:	39ffff04 	addi	r7,r7,-4
  80250c:	383fd20e 	bge	r7,zero,802458 <playreverse+0x198>
  802510:	003fd406 	br	802464 <playreverse+0x1a4>
  802514:	b13fe72e 	bgeu	r22,r4,8024b4 <playreverse+0x1f4>
  802518:	84000044 	addi	r16,r16,1
  80251c:	8c400104 	addi	r17,r17,4
  802520:	943fa01e 	bne	r18,r16,8023a4 <playreverse+0xe4>
  802524:	003fa706 	br	8023c4 <playreverse+0x104>

00802528 <playnormal>:
  802528:	d0a75117 	ldw	r2,-25276(gp)
  80252c:	deff7704 	addi	sp,sp,-548
  802530:	dcc08315 	stw	r19,524(sp)
  802534:	04c00044 	movi	r19,1
  802538:	dfc08815 	stw	ra,544(sp)
  80253c:	ddc08715 	stw	r23,540(sp)
  802540:	dd808615 	stw	r22,536(sp)
  802544:	dd408515 	stw	r21,532(sp)
  802548:	dd008415 	stw	r20,528(sp)
  80254c:	dc808215 	stw	r18,520(sp)
  802550:	dc408115 	stw	r17,516(sp)
  802554:	dc008015 	stw	r16,512(sp)
  802558:	14c06026 	beq	r2,r19,8026dc <playnormal+0x1b4>
  80255c:	d1675517 	ldw	r5,-25260(gp)
  802560:	04002074 	movhi	r16,129
  802564:	84103504 	addi	r16,r16,16596
  802568:	8009883a 	mov	r4,r16
  80256c:	d0275315 	stw	zero,-25268(gp)
  802570:	d0275415 	stw	zero,-25264(gp)
  802574:	08004f80 	call	8004f8 <LCD_Display>
  802578:	d1275b43 	ldbu	r4,-25235(gp)
  80257c:	d1676e17 	ldw	r5,-25160(gp)
  802580:	04402074 	movhi	r17,129
  802584:	8c503f04 	addi	r17,r17,16636
  802588:	08044b40 	call	8044b4 <__mulsi3>
  80258c:	81000417 	ldw	r4,16(r16)
  802590:	100b883a 	mov	r5,r2
  802594:	08044a40 	call	8044a4 <__udivsi3>
  802598:	1009883a 	mov	r4,r2
  80259c:	08041d40 	call	8041d4 <__floatunsidf>
  8025a0:	180b883a 	mov	r5,r3
  8025a4:	1009883a 	mov	r4,r2
  8025a8:	08035140 	call	803514 <ceil>
  8025ac:	0011883a 	mov	r8,zero
  8025b0:	024ffc34 	movhi	r9,16368
  8025b4:	180b883a 	mov	r5,r3
  8025b8:	480f883a 	mov	r7,r9
  8025bc:	1009883a 	mov	r4,r2
  8025c0:	400d883a 	mov	r6,r8
  8025c4:	0803e800 	call	803e80 <__adddf3>
  8025c8:	1009883a 	mov	r4,r2
  8025cc:	180b883a 	mov	r5,r3
  8025d0:	080394c0 	call	80394c <__fixunsdfsi>
  8025d4:	1025883a 	mov	r18,r2
  8025d8:	80800317 	ldw	r2,12(r16)
  8025dc:	1009883a 	mov	r4,r2
  8025e0:	88800015 	stw	r2,0(r17)
  8025e4:	08017d00 	call	8017d0 <CalcFATSecAndOffset>
  8025e8:	9c80102e 	bgeu	r19,r18,80262c <playnormal+0x104>
  8025ec:	9821883a 	mov	r16,r19
  8025f0:	8c400104 	addi	r17,r17,4
  8025f4:	04c3fd04 	movi	r19,4084
  8025f8:	0503fdc4 	movi	r20,4087
  8025fc:	057ffd14 	movui	r21,65524
  802600:	05fffdd4 	movui	r23,65527
  802604:	05840034 	movhi	r22,4096
  802608:	b5bffdc4 	addi	r22,r22,-9
  80260c:	d1277417 	ldw	r4,-25136(gp)
  802610:	d0a78117 	ldw	r2,-25084(gp)
  802614:	89000015 	stw	r4,0(r17)
  802618:	98803b36 	bltu	r19,r2,802708 <playnormal+0x1e0>
  80261c:	a1003c2e 	bgeu	r20,r4,802710 <playnormal+0x1e8>
  802620:	84000044 	addi	r16,r16,1
  802624:	8c400104 	addi	r17,r17,4
  802628:	84bff81e 	bne	r16,r18,80260c <playnormal+0xe4>
  80262c:	d1675b43 	ldbu	r5,-25235(gp)
  802630:	9009883a 	mov	r4,r18
  802634:	08044b40 	call	8044b4 <__mulsi3>
  802638:	1027883a 	mov	r19,r2
  80263c:	0080270e 	bge	zero,r2,8026dc <playnormal+0x1b4>
  802640:	d0e75117 	ldw	r3,-25276(gp)
  802644:	00800044 	movi	r2,1
  802648:	18802426 	beq	r3,r2,8026dc <playnormal+0x1b4>
  80264c:	d809883a 	mov	r4,sp
  802650:	000b883a 	mov	r5,zero
  802654:	01808004 	movi	r6,512
  802658:	0804a800 	call	804a80 <memset>
  80265c:	0023883a 	mov	r17,zero
  802660:	04004034 	movhi	r16,256
  802664:	84043c04 	addi	r16,r16,4336
  802668:	04804034 	movhi	r18,256
  80266c:	94845004 	addi	r18,r18,4416
  802670:	01002074 	movhi	r4,129
  802674:	21103504 	addi	r4,r4,16596
  802678:	d80b883a 	mov	r5,sp
  80267c:	01802074 	movhi	r6,129
  802680:	31903f04 	addi	r6,r6,16636
  802684:	880f883a 	mov	r7,r17
  802688:	080106c0 	call	80106c <get_rel_sector>
  80268c:	d1a76e17 	ldw	r6,-25160(gp)
  802690:	d1675817 	ldw	r5,-25248(gp)
  802694:	0009883a 	mov	r4,zero
  802698:	21800a2e 	bgeu	r4,r6,8026c4 <playnormal+0x19c>
  80269c:	80800037 	ldwio	r2,0(r16)
  8026a0:	26c7883a 	add	r3,r4,sp
  8026a4:	103ffc1e 	bne	r2,zero,802698 <playnormal+0x170>
  8026a8:	18800043 	ldbu	r2,1(r3)
  8026ac:	18c00003 	ldbu	r3,0(r3)
  8026b0:	1004923a 	slli	r2,r2,8
  8026b4:	10cab03a 	or	r5,r2,r3
  8026b8:	91400035 	stwio	r5,0(r18)
  8026bc:	21000084 	addi	r4,r4,2
  8026c0:	21bff636 	bltu	r4,r6,80269c <playnormal+0x174>
  8026c4:	8c400044 	addi	r17,r17,1
  8026c8:	d1675815 	stw	r5,-25248(gp)
  8026cc:	9c400326 	beq	r19,r17,8026dc <playnormal+0x1b4>
  8026d0:	d0e75117 	ldw	r3,-25276(gp)
  8026d4:	00800044 	movi	r2,1
  8026d8:	18bfe51e 	bne	r3,r2,802670 <playnormal+0x148>
  8026dc:	dfc08817 	ldw	ra,544(sp)
  8026e0:	ddc08717 	ldw	r23,540(sp)
  8026e4:	dd808617 	ldw	r22,536(sp)
  8026e8:	dd408517 	ldw	r21,532(sp)
  8026ec:	dd008417 	ldw	r20,528(sp)
  8026f0:	dcc08317 	ldw	r19,524(sp)
  8026f4:	dc808217 	ldw	r18,520(sp)
  8026f8:	dc408117 	ldw	r17,516(sp)
  8026fc:	dc008017 	ldw	r16,512(sp)
  802700:	dec08904 	addi	sp,sp,548
  802704:	f800283a 	ret
  802708:	a8800636 	bltu	r21,r2,802724 <playnormal+0x1fc>
  80270c:	b93fc436 	bltu	r23,r4,802620 <playnormal+0xf8>
  802710:	84000044 	addi	r16,r16,1
  802714:	08017d00 	call	8017d0 <CalcFATSecAndOffset>
  802718:	8c400104 	addi	r17,r17,4
  80271c:	84bfbb1e 	bne	r16,r18,80260c <playnormal+0xe4>
  802720:	003fc206 	br	80262c <playnormal+0x104>
  802724:	b13ffa2e 	bgeu	r22,r4,802710 <playnormal+0x1e8>
  802728:	84000044 	addi	r16,r16,1
  80272c:	8c400104 	addi	r17,r17,4
  802730:	84bfb61e 	bne	r16,r18,80260c <playnormal+0xe4>
  802734:	003fbd06 	br	80262c <playnormal+0x104>

00802738 <init_bs>:
  802738:	deff7404 	addi	sp,sp,-560
  80273c:	000b883a 	mov	r5,zero
  802740:	01808004 	movi	r6,512
  802744:	d809883a 	mov	r4,sp
  802748:	dfc08b15 	stw	ra,556(sp)
  80274c:	df008a15 	stw	fp,552(sp)
  802750:	ddc08915 	stw	r23,548(sp)
  802754:	dd808815 	stw	r22,544(sp)
  802758:	dd408715 	stw	r21,540(sp)
  80275c:	dd008615 	stw	r20,536(sp)
  802760:	dcc08515 	stw	r19,532(sp)
  802764:	dc808415 	stw	r18,528(sp)
  802768:	dc408315 	stw	r17,524(sp)
  80276c:	dc008215 	stw	r16,520(sp)
  802770:	0804a800 	call	804a80 <memset>
  802774:	d1678b17 	ldw	r5,-25044(gp)
  802778:	d809883a 	mov	r4,sp
  80277c:	01800044 	movi	r6,1
  802780:	0800df40 	call	800df4 <SD_read_lba>
  802784:	d8c07f83 	ldbu	r3,510(sp)
  802788:	00801544 	movi	r2,85
  80278c:	18800e26 	beq	r3,r2,8027c8 <init_bs+0x90>
  802790:	00c00044 	movi	r3,1
  802794:	1805883a 	mov	r2,r3
  802798:	dfc08b17 	ldw	ra,556(sp)
  80279c:	df008a17 	ldw	fp,552(sp)
  8027a0:	ddc08917 	ldw	r23,548(sp)
  8027a4:	dd808817 	ldw	r22,544(sp)
  8027a8:	dd408717 	ldw	r21,540(sp)
  8027ac:	dd008617 	ldw	r20,536(sp)
  8027b0:	dcc08517 	ldw	r19,532(sp)
  8027b4:	dc808417 	ldw	r18,528(sp)
  8027b8:	dc408317 	ldw	r17,524(sp)
  8027bc:	dc008217 	ldw	r16,520(sp)
  8027c0:	dec08c04 	addi	sp,sp,560
  8027c4:	f800283a 	ret
  8027c8:	d8c07fc3 	ldbu	r3,511(sp)
  8027cc:	00802a84 	movi	r2,170
  8027d0:	18bfef1e 	bne	r3,r2,802790 <init_bs+0x58>
  8027d4:	d8800303 	ldbu	r2,12(sp)
  8027d8:	d8c003c3 	ldbu	r3,15(sp)
  8027dc:	d94002c3 	ldbu	r5,11(sp)
  8027e0:	1004923a 	slli	r2,r2,8
  8027e4:	da000383 	ldbu	r8,14(sp)
  8027e8:	1806923a 	slli	r3,r3,8
  8027ec:	288b883a 	add	r5,r5,r2
  8027f0:	d8800083 	ldbu	r2,2(sp)
  8027f4:	40f9883a 	add	fp,r8,r3
  8027f8:	d2276644 	addi	r8,gp,-25191
  8027fc:	40800085 	stb	r2,2(r8)
  802800:	d8800003 	ldbu	r2,0(sp)
  802804:	d8c00283 	ldbu	r3,10(sp)
  802808:	d1a77784 	addi	r6,gp,-25122
  80280c:	d0a76645 	stb	r2,-25191(gp)
  802810:	d88000c3 	ldbu	r2,3(sp)
  802814:	30c001c5 	stb	r3,7(r6)
  802818:	d8c00043 	ldbu	r3,1(sp)
  80281c:	d0a77785 	stb	r2,-25122(gp)
  802820:	d8800143 	ldbu	r2,5(sp)
  802824:	40c00045 	stb	r3,1(r8)
  802828:	d8c00103 	ldbu	r3,4(sp)
  80282c:	30800085 	stb	r2,2(r6)
  802830:	d88001c3 	ldbu	r2,7(sp)
  802834:	d9000343 	ldbu	r4,13(sp)
  802838:	30c00045 	stb	r3,1(r6)
  80283c:	d8c00183 	ldbu	r3,6(sp)
  802840:	30800105 	stb	r2,4(r6)
  802844:	d8800243 	ldbu	r2,9(sp)
  802848:	d9008145 	stb	r4,517(sp)
  80284c:	30c000c5 	stb	r3,3(r6)
  802850:	d9000403 	ldbu	r4,16(sp)
  802854:	d8c00203 	ldbu	r3,8(sp)
  802858:	30800185 	stb	r2,6(r6)
  80285c:	d8808143 	ldbu	r2,517(sp)
  802860:	30c00145 	stb	r3,5(r6)
  802864:	d9008105 	stb	r4,516(sp)
  802868:	d1676e15 	stw	r5,-25160(gp)
  80286c:	d9c00483 	ldbu	r7,18(sp)
  802870:	d9000443 	ldbu	r4,17(sp)
  802874:	d0a75b45 	stb	r2,-25235(gp)
  802878:	d8808103 	ldbu	r2,516(sp)
  80287c:	db000843 	ldbu	r12,33(sp)
  802880:	da000883 	ldbu	r8,34(sp)
  802884:	da8008c3 	ldbu	r10,35(sp)
  802888:	d0a76805 	stb	r2,-25184(gp)
  80288c:	6018923a 	slli	r12,r12,8
  802890:	5014963a 	slli	r10,r10,24
  802894:	4010943a 	slli	r8,r8,16
  802898:	d8800803 	ldbu	r2,32(sp)
  80289c:	380e923a 	slli	r7,r7,8
  8028a0:	4291883a 	add	r8,r8,r10
  8028a4:	1305883a 	add	r2,r2,r12
  8028a8:	dc400743 	ldbu	r17,29(sp)
  8028ac:	da400783 	ldbu	r9,30(sp)
  8028b0:	dac007c3 	ldbu	r11,31(sp)
  8028b4:	1205883a 	add	r2,r2,r8
  8028b8:	db400503 	ldbu	r13,20(sp)
  8028bc:	db8005c3 	ldbu	r14,23(sp)
  8028c0:	dbc00643 	ldbu	r15,25(sp)
  8028c4:	dc0006c3 	ldbu	r16,27(sp)
  8028c8:	21c9883a 	add	r4,r4,r7
  8028cc:	d8808015 	stw	r2,512(sp)
  8028d0:	d8800543 	ldbu	r2,21(sp)
  8028d4:	d1275c15 	stw	r4,-25232(gp)
  8028d8:	5816963a 	slli	r11,r11,24
  8028dc:	8822923a 	slli	r17,r17,8
  8028e0:	4812943a 	slli	r9,r9,16
  8028e4:	2008917a 	slli	r4,r4,5
  8028e8:	d9c00703 	ldbu	r7,28(sp)
  8028ec:	681a923a 	slli	r13,r13,8
  8028f0:	701c923a 	slli	r14,r14,8
  8028f4:	781e923a 	slli	r15,r15,8
  8028f8:	dc8004c3 	ldbu	r18,19(sp)
  8028fc:	8020923a 	slli	r16,r16,8
  802900:	dcc00583 	ldbu	r19,22(sp)
  802904:	d8c00603 	ldbu	r3,24(sp)
  802908:	d9800683 	ldbu	r6,26(sp)
  80290c:	d0a78905 	stb	r2,-25052(gp)
  802910:	d8808017 	ldw	r2,512(sp)
  802914:	4ad3883a 	add	r9,r9,r11
  802918:	2909883a 	add	r4,r5,r4
  80291c:	3c4f883a 	add	r7,r7,r17
  802920:	936f883a 	add	r23,r18,r13
  802924:	1bc7883a 	add	r3,r3,r15
  802928:	9ba5883a 	add	r18,r19,r14
  80292c:	340d883a 	add	r6,r6,r16
  802930:	3a4f883a 	add	r7,r7,r9
  802934:	213fffc4 	addi	r4,r4,-1
  802938:	d7278315 	stw	fp,-25076(gp)
  80293c:	d0e76215 	stw	r3,-25208(gp)
  802940:	d1a78515 	stw	r6,-25068(gp)
  802944:	d1e76315 	stw	r7,-25204(gp)
  802948:	d5e77515 	stw	r23,-25132(gp)
  80294c:	d4a76915 	stw	r18,-25180(gp)
  802950:	d0a77e15 	stw	r2,-25096(gp)
  802954:	08044a40 	call	8044a4 <__udivsi3>
  802958:	102d883a 	mov	r22,r2
  80295c:	d0a78215 	stw	r2,-25080(gp)
  802960:	90007b1e 	bne	r18,zero,802b50 <init_bs+0x418>
  802964:	dd400943 	ldbu	r21,37(sp)
  802968:	d8800983 	ldbu	r2,38(sp)
  80296c:	dc4009c3 	ldbu	r17,39(sp)
  802970:	d9000903 	ldbu	r4,36(sp)
  802974:	a82a923a 	slli	r21,r21,8
  802978:	1004943a 	slli	r2,r2,16
  80297c:	8822963a 	slli	r17,r17,24
  802980:	dc800b43 	ldbu	r18,45(sp)
  802984:	da800b83 	ldbu	r10,46(sp)
  802988:	db400bc3 	ldbu	r13,47(sp)
  80298c:	1445883a 	add	r2,r2,r17
  802990:	2549883a 	add	r4,r4,r21
  802994:	2089883a 	add	r4,r4,r2
  802998:	db801103 	ldbu	r14,68(sp)
  80299c:	d0a76f17 	ldw	r2,-25156(gp)
  8029a0:	dac01143 	ldbu	r11,69(sp)
  8029a4:	db001183 	ldbu	r12,70(sp)
  8029a8:	681a963a 	slli	r13,r13,24
  8029ac:	d8c00b03 	ldbu	r3,44(sp)
  8029b0:	9024923a 	slli	r18,r18,8
  8029b4:	5014943a 	slli	r10,r10,16
  8029b8:	dbc00a43 	ldbu	r15,41(sp)
  8029bc:	dc000ac3 	ldbu	r16,43(sp)
  8029c0:	dcc00c43 	ldbu	r19,49(sp)
  8029c4:	dd000cc3 	ldbu	r20,51(sp)
  8029c8:	701c923a 	slli	r14,r14,8
  8029cc:	6018963a 	slli	r12,r12,24
  8029d0:	da4010c3 	ldbu	r9,67(sp)
  8029d4:	5355883a 	add	r10,r10,r13
  8029d8:	d0a77015 	stw	r2,-25152(gp)
  8029dc:	5816943a 	slli	r11,r11,16
  8029e0:	d8801003 	ldbu	r2,64(sp)
  8029e4:	1c87883a 	add	r3,r3,r18
  8029e8:	1a87883a 	add	r3,r3,r10
  8029ec:	781e923a 	slli	r15,r15,8
  8029f0:	8020923a 	slli	r16,r16,8
  8029f4:	d9400a03 	ldbu	r5,40(sp)
  8029f8:	d9800a83 	ldbu	r6,42(sp)
  8029fc:	d9c00c03 	ldbu	r7,48(sp)
  802a00:	da000c83 	ldbu	r8,50(sp)
  802a04:	9826923a 	slli	r19,r19,8
  802a08:	a028923a 	slli	r20,r20,8
  802a0c:	d0e75e15 	stw	r3,-25224(gp)
  802a10:	d8c01083 	ldbu	r3,66(sp)
  802a14:	4b93883a 	add	r9,r9,r14
  802a18:	5b17883a 	add	r11,r11,r12
  802a1c:	d0a76105 	stb	r2,-25212(gp)
  802a20:	d88011c3 	ldbu	r2,71(sp)
  802a24:	2bcb883a 	add	r5,r5,r15
  802a28:	340d883a 	add	r6,r6,r16
  802a2c:	3ccf883a 	add	r7,r7,r19
  802a30:	4511883a 	add	r8,r8,r20
  802a34:	4ad3883a 	add	r9,r9,r11
  802a38:	d1675f15 	stw	r5,-25220(gp)
  802a3c:	d1a78a15 	stw	r6,-25048(gp)
  802a40:	01402074 	movhi	r5,129
  802a44:	29503c04 	addi	r5,r5,16624
  802a48:	d1e78815 	stw	r7,-25056(gp)
  802a4c:	d2277115 	stw	r8,-25148(gp)
  802a50:	d0e75605 	stb	r3,-25256(gp)
  802a54:	d2678615 	stw	r9,-25064(gp)
  802a58:	d1276f15 	stw	r4,-25156(gp)
  802a5c:	28800005 	stb	r2,0(r5)
  802a60:	d8801443 	ldbu	r2,81(sp)
  802a64:	d8c01203 	ldbu	r3,72(sp)
  802a68:	d1a76404 	addi	r6,gp,-25200
  802a6c:	28800285 	stb	r2,10(r5)
  802a70:	d8801243 	ldbu	r2,73(sp)
  802a74:	28c00045 	stb	r3,1(r5)
  802a78:	d8c01283 	ldbu	r3,74(sp)
  802a7c:	28800085 	stb	r2,2(r5)
  802a80:	d88012c3 	ldbu	r2,75(sp)
  802a84:	28c000c5 	stb	r3,3(r5)
  802a88:	d8c01303 	ldbu	r3,76(sp)
  802a8c:	28800105 	stb	r2,4(r5)
  802a90:	d8801343 	ldbu	r2,77(sp)
  802a94:	28c00145 	stb	r3,5(r5)
  802a98:	d8c01383 	ldbu	r3,78(sp)
  802a9c:	28800185 	stb	r2,6(r5)
  802aa0:	d88013c3 	ldbu	r2,79(sp)
  802aa4:	28c001c5 	stb	r3,7(r5)
  802aa8:	d8c01403 	ldbu	r3,80(sp)
  802aac:	28800205 	stb	r2,8(r5)
  802ab0:	d8801483 	ldbu	r2,82(sp)
  802ab4:	28c00245 	stb	r3,9(r5)
  802ab8:	d8c014c3 	ldbu	r3,83(sp)
  802abc:	d0a76405 	stb	r2,-25200(gp)
  802ac0:	d8801503 	ldbu	r2,84(sp)
  802ac4:	30c00045 	stb	r3,1(r6)
  802ac8:	d8c01543 	ldbu	r3,85(sp)
  802acc:	30800085 	stb	r2,2(r6)
  802ad0:	d8801583 	ldbu	r2,86(sp)
  802ad4:	30c000c5 	stb	r3,3(r6)
  802ad8:	d8c015c3 	ldbu	r3,87(sp)
  802adc:	30800105 	stb	r2,4(r6)
  802ae0:	d8801603 	ldbu	r2,88(sp)
  802ae4:	30c00145 	stb	r3,5(r6)
  802ae8:	30800185 	stb	r2,6(r6)
  802aec:	d8801643 	ldbu	r2,89(sp)
  802af0:	dc008103 	ldbu	r16,516(sp)
  802af4:	308001c5 	stb	r2,7(r6)
  802af8:	800b883a 	mov	r5,r16
  802afc:	08044b40 	call	8044b4 <__mulsi3>
  802b00:	e085883a 	add	r2,fp,r2
  802b04:	b087883a 	add	r3,r22,r2
  802b08:	d0e76715 	stw	r3,-25188(gp)
  802b0c:	d0a76015 	stw	r2,-25216(gp)
  802b10:	b8005026 	beq	r23,zero,802c54 <init_bs+0x51c>
  802b14:	d5e78015 	stw	r23,-25088(gp)
  802b18:	d1677017 	ldw	r5,-25152(gp)
  802b1c:	8009883a 	mov	r4,r16
  802b20:	08044b40 	call	8044b4 <__mulsi3>
  802b24:	d0e78017 	ldw	r3,-25088(gp)
  802b28:	e085883a 	add	r2,fp,r2
  802b2c:	b085883a 	add	r2,r22,r2
  802b30:	d9408143 	ldbu	r5,517(sp)
  802b34:	1887c83a 	sub	r3,r3,r2
  802b38:	1809883a 	mov	r4,r3
  802b3c:	d0e77f15 	stw	r3,-25092(gp)
  802b40:	08044a40 	call	8044a4 <__udivsi3>
  802b44:	0007883a 	mov	r3,zero
  802b48:	d0a78115 	stw	r2,-25084(gp)
  802b4c:	003f1106 	br	802794 <init_bs+0x5c>
  802b50:	d9000a03 	ldbu	r4,40(sp)
  802b54:	d8800a43 	ldbu	r2,41(sp)
  802b58:	d8c00a83 	ldbu	r3,42(sp)
  802b5c:	2008923a 	slli	r4,r4,8
  802b60:	d94009c3 	ldbu	r5,39(sp)
  802b64:	1806963a 	slli	r3,r3,24
  802b68:	1004943a 	slli	r2,r2,16
  802b6c:	290b883a 	add	r5,r5,r4
  802b70:	01002074 	movhi	r4,129
  802b74:	211deb04 	addi	r4,r4,30636
  802b78:	10c5883a 	add	r2,r2,r3
  802b7c:	288b883a 	add	r5,r5,r2
  802b80:	d8800d43 	ldbu	r2,53(sp)
  802b84:	d8c00903 	ldbu	r3,36(sp)
  802b88:	d1676d15 	stw	r5,-25164(gp)
  802b8c:	20800285 	stb	r2,10(r4)
  802b90:	d8800983 	ldbu	r2,38(sp)
  802b94:	d0e78705 	stb	r3,-25060(gp)
  802b98:	d8c00b03 	ldbu	r3,44(sp)
  802b9c:	d0a77305 	stb	r2,-25140(gp)
  802ba0:	d8800ac3 	ldbu	r2,43(sp)
  802ba4:	20c00045 	stb	r3,1(r4)
  802ba8:	d8c00b83 	ldbu	r3,46(sp)
  802bac:	20800005 	stb	r2,0(r4)
  802bb0:	d8800b43 	ldbu	r2,45(sp)
  802bb4:	20c000c5 	stb	r3,3(r4)
  802bb8:	d8c00c03 	ldbu	r3,48(sp)
  802bbc:	20800085 	stb	r2,2(r4)
  802bc0:	d8800bc3 	ldbu	r2,47(sp)
  802bc4:	20c00145 	stb	r3,5(r4)
  802bc8:	d8c00c83 	ldbu	r3,50(sp)
  802bcc:	20800105 	stb	r2,4(r4)
  802bd0:	d8800c43 	ldbu	r2,49(sp)
  802bd4:	20c001c5 	stb	r3,7(r4)
  802bd8:	d8c00d03 	ldbu	r3,52(sp)
  802bdc:	20800185 	stb	r2,6(r4)
  802be0:	d8800cc3 	ldbu	r2,51(sp)
  802be4:	20c00245 	stb	r3,9(r4)
  802be8:	d4a77015 	stw	r18,-25152(gp)
  802bec:	20800205 	stb	r2,8(r4)
  802bf0:	d8800d83 	ldbu	r2,54(sp)
  802bf4:	d1a75944 	addi	r6,gp,-25243
  802bf8:	9009883a 	mov	r4,r18
  802bfc:	d0a75945 	stb	r2,-25243(gp)
  802c00:	d8800f43 	ldbu	r2,61(sp)
  802c04:	d8c00dc3 	ldbu	r3,55(sp)
  802c08:	dc408103 	ldbu	r17,516(sp)
  802c0c:	30800185 	stb	r2,6(r6)
  802c10:	30c00045 	stb	r3,1(r6)
  802c14:	d8800e03 	ldbu	r2,56(sp)
  802c18:	d8c00e43 	ldbu	r3,57(sp)
  802c1c:	880b883a 	mov	r5,r17
  802c20:	30800085 	stb	r2,2(r6)
  802c24:	30c000c5 	stb	r3,3(r6)
  802c28:	d8800e83 	ldbu	r2,58(sp)
  802c2c:	d8c00ec3 	ldbu	r3,59(sp)
  802c30:	8821883a 	mov	r16,r17
  802c34:	30800105 	stb	r2,4(r6)
  802c38:	30c00145 	stb	r3,5(r6)
  802c3c:	08044b40 	call	8044b4 <__mulsi3>
  802c40:	e085883a 	add	r2,fp,r2
  802c44:	b087883a 	add	r3,r22,r2
  802c48:	d0e76715 	stw	r3,-25188(gp)
  802c4c:	d0a76015 	stw	r2,-25216(gp)
  802c50:	b83fb01e 	bne	r23,zero,802b14 <init_bs+0x3dc>
  802c54:	d9008017 	ldw	r4,512(sp)
  802c58:	d1278015 	stw	r4,-25088(gp)
  802c5c:	003fae06 	br	802b18 <init_bs+0x3e0>

00802c60 <init_mbr>:
  802c60:	deff7f04 	addi	sp,sp,-516
  802c64:	d809883a 	mov	r4,sp
  802c68:	000b883a 	mov	r5,zero
  802c6c:	01808004 	movi	r6,512
  802c70:	dfc08015 	stw	ra,512(sp)
  802c74:	0804a800 	call	804a80 <memset>
  802c78:	d809883a 	mov	r4,sp
  802c7c:	000b883a 	mov	r5,zero
  802c80:	01800044 	movi	r6,1
  802c84:	0800df40 	call	800df4 <SD_read_lba>
  802c88:	d8c07f83 	ldbu	r3,510(sp)
  802c8c:	00801544 	movi	r2,85
  802c90:	18800526 	beq	r3,r2,802ca8 <init_mbr+0x48>
  802c94:	02800044 	movi	r10,1
  802c98:	5005883a 	mov	r2,r10
  802c9c:	dfc08017 	ldw	ra,512(sp)
  802ca0:	dec08104 	addi	sp,sp,516
  802ca4:	f800283a 	ret
  802ca8:	d8c07fc3 	ldbu	r3,511(sp)
  802cac:	00802a84 	movi	r2,170
  802cb0:	d2e78944 	addi	r11,gp,-25051
  802cb4:	d3277d04 	addi	r12,gp,-25100
  802cb8:	0015883a 	mov	r10,zero
  802cbc:	18bff51e 	bne	r3,r2,802c94 <init_mbr+0x34>
  802cc0:	d9c071c3 	ldbu	r7,455(sp)
  802cc4:	d8807203 	ldbu	r2,456(sp)
  802cc8:	d9407243 	ldbu	r5,457(sp)
  802ccc:	d98072c3 	ldbu	r6,459(sp)
  802cd0:	d8c07303 	ldbu	r3,460(sp)
  802cd4:	d9007343 	ldbu	r4,461(sp)
  802cd8:	380e923a 	slli	r7,r7,8
  802cdc:	280a963a 	slli	r5,r5,24
  802ce0:	da007183 	ldbu	r8,454(sp)
  802ce4:	1004943a 	slli	r2,r2,16
  802ce8:	300c923a 	slli	r6,r6,8
  802cec:	2008963a 	slli	r4,r4,24
  802cf0:	da407283 	ldbu	r9,458(sp)
  802cf4:	1806943a 	slli	r3,r3,16
  802cf8:	1145883a 	add	r2,r2,r5
  802cfc:	41d1883a 	add	r8,r8,r7
  802d00:	1907883a 	add	r3,r3,r4
  802d04:	4091883a 	add	r8,r8,r2
  802d08:	4993883a 	add	r9,r9,r6
  802d0c:	d8807043 	ldbu	r2,449(sp)
  802d10:	48d3883a 	add	r9,r9,r3
  802d14:	d8c07143 	ldbu	r3,453(sp)
  802d18:	58800085 	stb	r2,2(r11)
  802d1c:	d8806f83 	ldbu	r2,446(sp)
  802d20:	60c00085 	stb	r3,2(r12)
  802d24:	d8c06fc3 	ldbu	r3,447(sp)
  802d28:	d0a75905 	stb	r2,-25244(gp)
  802d2c:	d8807003 	ldbu	r2,448(sp)
  802d30:	d0e78945 	stb	r3,-25051(gp)
  802d34:	d8c07083 	ldbu	r3,450(sp)
  802d38:	58800045 	stb	r2,1(r11)
  802d3c:	d88070c3 	ldbu	r2,451(sp)
  802d40:	d0e76605 	stb	r3,-25192(gp)
  802d44:	d8c07103 	ldbu	r3,452(sp)
  802d48:	d0a77d05 	stb	r2,-25100(gp)
  802d4c:	5005883a 	mov	r2,r10
  802d50:	60c00045 	stb	r3,1(r12)
  802d54:	d2278b15 	stw	r8,-25044(gp)
  802d58:	d2677c15 	stw	r9,-25104(gp)
  802d5c:	dfc08017 	ldw	ra,512(sp)
  802d60:	dec08104 	addi	sp,sp,516
  802d64:	f800283a 	ret

00802d68 <SD_card_init>:
  802d68:	defff904 	addi	sp,sp,-28
  802d6c:	01804034 	movhi	r6,256
  802d70:	31844504 	addi	r6,r6,4372
  802d74:	01000044 	movi	r4,1
  802d78:	dfc00615 	stw	ra,24(sp)
  802d7c:	dd400515 	stw	r21,20(sp)
  802d80:	dd000415 	stw	r20,16(sp)
  802d84:	dcc00315 	stw	r19,12(sp)
  802d88:	dc800215 	stw	r18,8(sp)
  802d8c:	dc400115 	stw	r17,4(sp)
  802d90:	dc000015 	stw	r16,0(sp)
  802d94:	31000035 	stwio	r4,0(r6)
  802d98:	00804034 	movhi	r2,256
  802d9c:	10844104 	addi	r2,r2,4356
  802da0:	10000035 	stwio	zero,0(r2)
  802da4:	01404034 	movhi	r5,256
  802da8:	29444804 	addi	r5,r5,4384
  802dac:	29000035 	stwio	r4,0(r5)
  802db0:	10800304 	addi	r2,r2,12
  802db4:	11000035 	stwio	r4,0(r2)
  802db8:	00c04034 	movhi	r3,256
  802dbc:	18c44004 	addi	r3,r3,4352
  802dc0:	18000035 	stwio	zero,0(r3)
  802dc4:	0007883a 	mov	r3,zero
  802dc8:	d0277745 	stb	zero,-25123(gp)
  802dcc:	01c00a04 	movi	r7,40
  802dd0:	30000035 	stwio	zero,0(r6)
  802dd4:	28000035 	stwio	zero,0(r5)
  802dd8:	29000035 	stwio	r4,0(r5)
  802ddc:	28000035 	stwio	zero,0(r5)
  802de0:	29000035 	stwio	r4,0(r5)
  802de4:	18c00044 	addi	r3,r3,1
  802de8:	18803fcc 	andi	r2,r3,255
  802dec:	11fff81e 	bne	r2,r7,802dd0 <SD_card_init+0x68>
  802df0:	d4e77604 	addi	r19,gp,-25128
  802df4:	00801004 	movi	r2,64
  802df8:	9809883a 	mov	r4,r19
  802dfc:	d0a77605 	stb	r2,-25128(gp)
  802e00:	98000045 	stb	zero,1(r19)
  802e04:	98000085 	stb	zero,2(r19)
  802e08:	980000c5 	stb	zero,3(r19)
  802e0c:	98000105 	stb	zero,4(r19)
  802e10:	04004034 	movhi	r16,256
  802e14:	84044804 	addi	r16,r16,4384
  802e18:	08008d00 	call	8008d0 <send_cmd>
  802e1c:	04400044 	movi	r17,1
  802e20:	9825883a 	mov	r18,r19
  802e24:	05004034 	movhi	r20,256
  802e28:	a5044504 	addi	r20,r20,4372
  802e2c:	80000035 	stwio	zero,0(r16)
  802e30:	84400035 	stwio	r17,0(r16)
  802e34:	80000035 	stwio	zero,0(r16)
  802e38:	84400035 	stwio	r17,0(r16)
  802e3c:	80000035 	stwio	zero,0(r16)
  802e40:	84400035 	stwio	r17,0(r16)
  802e44:	80000035 	stwio	zero,0(r16)
  802e48:	84400035 	stwio	r17,0(r16)
  802e4c:	80000035 	stwio	zero,0(r16)
  802e50:	84400035 	stwio	r17,0(r16)
  802e54:	80000035 	stwio	zero,0(r16)
  802e58:	84400035 	stwio	r17,0(r16)
  802e5c:	80000035 	stwio	zero,0(r16)
  802e60:	84400035 	stwio	r17,0(r16)
  802e64:	80000035 	stwio	zero,0(r16)
  802e68:	84400035 	stwio	r17,0(r16)
  802e6c:	d1277604 	addi	r4,gp,-25128
  802e70:	00801dc4 	movi	r2,119
  802e74:	98000045 	stb	zero,1(r19)
  802e78:	98000085 	stb	zero,2(r19)
  802e7c:	980000c5 	stb	zero,3(r19)
  802e80:	98000105 	stb	zero,4(r19)
  802e84:	d0a77605 	stb	r2,-25128(gp)
  802e88:	08008d00 	call	8008d0 <send_cmd>
  802e8c:	a0000035 	stwio	zero,0(r20)
  802e90:	80000035 	stwio	zero,0(r16)
  802e94:	84400035 	stwio	r17,0(r16)
  802e98:	80000035 	stwio	zero,0(r16)
  802e9c:	84400035 	stwio	r17,0(r16)
  802ea0:	01000044 	movi	r4,1
  802ea4:	0800a640 	call	800a64 <response_R>
  802ea8:	10803fcc 	andi	r2,r2,255
  802eac:	88804436 	bltu	r17,r2,802fc0 <SD_card_init+0x258>
  802eb0:	80000035 	stwio	zero,0(r16)
  802eb4:	84400035 	stwio	r17,0(r16)
  802eb8:	80000035 	stwio	zero,0(r16)
  802ebc:	84400035 	stwio	r17,0(r16)
  802ec0:	80000035 	stwio	zero,0(r16)
  802ec4:	84400035 	stwio	r17,0(r16)
  802ec8:	80000035 	stwio	zero,0(r16)
  802ecc:	84400035 	stwio	r17,0(r16)
  802ed0:	80000035 	stwio	zero,0(r16)
  802ed4:	84400035 	stwio	r17,0(r16)
  802ed8:	80000035 	stwio	zero,0(r16)
  802edc:	84400035 	stwio	r17,0(r16)
  802ee0:	80000035 	stwio	zero,0(r16)
  802ee4:	84400035 	stwio	r17,0(r16)
  802ee8:	80000035 	stwio	zero,0(r16)
  802eec:	84400035 	stwio	r17,0(r16)
  802ef0:	00801a44 	movi	r2,105
  802ef4:	00c003c4 	movi	r3,15
  802ef8:	d0a77605 	stb	r2,-25128(gp)
  802efc:	00bffc04 	movi	r2,-16
  802f00:	d1277604 	addi	r4,gp,-25128
  802f04:	90c00045 	stb	r3,1(r18)
  802f08:	90800085 	stb	r2,2(r18)
  802f0c:	900000c5 	stb	zero,3(r18)
  802f10:	90000105 	stb	zero,4(r18)
  802f14:	08008d00 	call	8008d0 <send_cmd>
  802f18:	a0000035 	stwio	zero,0(r20)
  802f1c:	80000035 	stwio	zero,0(r16)
  802f20:	84400035 	stwio	r17,0(r16)
  802f24:	80000035 	stwio	zero,0(r16)
  802f28:	84400035 	stwio	r17,0(r16)
  802f2c:	010000c4 	movi	r4,3
  802f30:	0800a640 	call	800a64 <response_R>
  802f34:	10803fcc 	andi	r2,r2,255
  802f38:	147fbc26 	beq	r2,r17,802e2c <SD_card_init+0xc4>
  802f3c:	80000035 	stwio	zero,0(r16)
  802f40:	84400035 	stwio	r17,0(r16)
  802f44:	80000035 	stwio	zero,0(r16)
  802f48:	84400035 	stwio	r17,0(r16)
  802f4c:	80000035 	stwio	zero,0(r16)
  802f50:	84400035 	stwio	r17,0(r16)
  802f54:	80000035 	stwio	zero,0(r16)
  802f58:	84400035 	stwio	r17,0(r16)
  802f5c:	80000035 	stwio	zero,0(r16)
  802f60:	84400035 	stwio	r17,0(r16)
  802f64:	80000035 	stwio	zero,0(r16)
  802f68:	84400035 	stwio	r17,0(r16)
  802f6c:	80000035 	stwio	zero,0(r16)
  802f70:	84400035 	stwio	r17,0(r16)
  802f74:	80000035 	stwio	zero,0(r16)
  802f78:	84400035 	stwio	r17,0(r16)
  802f7c:	d1277604 	addi	r4,gp,-25128
  802f80:	00801084 	movi	r2,66
  802f84:	90000045 	stb	zero,1(r18)
  802f88:	90000085 	stb	zero,2(r18)
  802f8c:	900000c5 	stb	zero,3(r18)
  802f90:	90000105 	stb	zero,4(r18)
  802f94:	d0a77605 	stb	r2,-25128(gp)
  802f98:	08008d00 	call	8008d0 <send_cmd>
  802f9c:	a0000035 	stwio	zero,0(r20)
  802fa0:	80000035 	stwio	zero,0(r16)
  802fa4:	84400035 	stwio	r17,0(r16)
  802fa8:	80000035 	stwio	zero,0(r16)
  802fac:	84400035 	stwio	r17,0(r16)
  802fb0:	01000084 	movi	r4,2
  802fb4:	0800a640 	call	800a64 <response_R>
  802fb8:	10803fcc 	andi	r2,r2,255
  802fbc:	88800a2e 	bgeu	r17,r2,802fe8 <SD_card_init+0x280>
  802fc0:	00800044 	movi	r2,1
  802fc4:	dfc00617 	ldw	ra,24(sp)
  802fc8:	dd400517 	ldw	r21,20(sp)
  802fcc:	dd000417 	ldw	r20,16(sp)
  802fd0:	dcc00317 	ldw	r19,12(sp)
  802fd4:	dc800217 	ldw	r18,8(sp)
  802fd8:	dc400117 	ldw	r17,4(sp)
  802fdc:	dc000017 	ldw	r16,0(sp)
  802fe0:	dec00704 	addi	sp,sp,28
  802fe4:	f800283a 	ret
  802fe8:	80000035 	stwio	zero,0(r16)
  802fec:	84400035 	stwio	r17,0(r16)
  802ff0:	80000035 	stwio	zero,0(r16)
  802ff4:	84400035 	stwio	r17,0(r16)
  802ff8:	80000035 	stwio	zero,0(r16)
  802ffc:	84400035 	stwio	r17,0(r16)
  803000:	80000035 	stwio	zero,0(r16)
  803004:	84400035 	stwio	r17,0(r16)
  803008:	80000035 	stwio	zero,0(r16)
  80300c:	84400035 	stwio	r17,0(r16)
  803010:	80000035 	stwio	zero,0(r16)
  803014:	84400035 	stwio	r17,0(r16)
  803018:	80000035 	stwio	zero,0(r16)
  80301c:	84400035 	stwio	r17,0(r16)
  803020:	80000035 	stwio	zero,0(r16)
  803024:	84400035 	stwio	r17,0(r16)
  803028:	d1277604 	addi	r4,gp,-25128
  80302c:	008010c4 	movi	r2,67
  803030:	90000045 	stb	zero,1(r18)
  803034:	90000085 	stb	zero,2(r18)
  803038:	900000c5 	stb	zero,3(r18)
  80303c:	90000105 	stb	zero,4(r18)
  803040:	d0a77605 	stb	r2,-25128(gp)
  803044:	08008d00 	call	8008d0 <send_cmd>
  803048:	a0000035 	stwio	zero,0(r20)
  80304c:	80000035 	stwio	zero,0(r16)
  803050:	84400035 	stwio	r17,0(r16)
  803054:	80000035 	stwio	zero,0(r16)
  803058:	84400035 	stwio	r17,0(r16)
  80305c:	01000184 	movi	r4,6
  803060:	0800a640 	call	800a64 <response_R>
  803064:	10803fcc 	andi	r2,r2,255
  803068:	88bfd536 	bltu	r17,r2,802fc0 <SD_card_init+0x258>
  80306c:	00802074 	movhi	r2,129
  803070:	10903004 	addi	r2,r2,16576
  803074:	10c00083 	ldbu	r3,2(r2)
  803078:	11400043 	ldbu	r5,1(r2)
  80307c:	d5678404 	addi	r21,gp,-25072
  803080:	a8c00045 	stb	r3,1(r21)
  803084:	d1678405 	stb	r5,-25072(gp)
  803088:	80000035 	stwio	zero,0(r16)
  80308c:	84400035 	stwio	r17,0(r16)
  803090:	80000035 	stwio	zero,0(r16)
  803094:	84400035 	stwio	r17,0(r16)
  803098:	80000035 	stwio	zero,0(r16)
  80309c:	84400035 	stwio	r17,0(r16)
  8030a0:	80000035 	stwio	zero,0(r16)
  8030a4:	84400035 	stwio	r17,0(r16)
  8030a8:	80000035 	stwio	zero,0(r16)
  8030ac:	84400035 	stwio	r17,0(r16)
  8030b0:	80000035 	stwio	zero,0(r16)
  8030b4:	84400035 	stwio	r17,0(r16)
  8030b8:	80000035 	stwio	zero,0(r16)
  8030bc:	84400035 	stwio	r17,0(r16)
  8030c0:	80000035 	stwio	zero,0(r16)
  8030c4:	84400035 	stwio	r17,0(r16)
  8030c8:	d1277604 	addi	r4,gp,-25128
  8030cc:	90c00085 	stb	r3,2(r18)
  8030d0:	00801244 	movi	r2,73
  8030d4:	91400045 	stb	r5,1(r18)
  8030d8:	900000c5 	stb	zero,3(r18)
  8030dc:	90000105 	stb	zero,4(r18)
  8030e0:	d0a77605 	stb	r2,-25128(gp)
  8030e4:	08008d00 	call	8008d0 <send_cmd>
  8030e8:	a0000035 	stwio	zero,0(r20)
  8030ec:	80000035 	stwio	zero,0(r16)
  8030f0:	84400035 	stwio	r17,0(r16)
  8030f4:	80000035 	stwio	zero,0(r16)
  8030f8:	84400035 	stwio	r17,0(r16)
  8030fc:	01000084 	movi	r4,2
  803100:	0800a640 	call	800a64 <response_R>
  803104:	10803fcc 	andi	r2,r2,255
  803108:	88bfad36 	bltu	r17,r2,802fc0 <SD_card_init+0x258>
  80310c:	0005883a 	mov	r2,zero
  803110:	04004034 	movhi	r16,256
  803114:	84044804 	addi	r16,r16,4384
  803118:	04400044 	movi	r17,1
  80311c:	00c00204 	movi	r3,8
  803120:	80000035 	stwio	zero,0(r16)
  803124:	84400035 	stwio	r17,0(r16)
  803128:	10800044 	addi	r2,r2,1
  80312c:	10fffc1e 	bne	r2,r3,803120 <SD_card_init+0x3b8>
  803130:	a9400043 	ldbu	r5,1(r21)
  803134:	d0e78403 	ldbu	r3,-25072(gp)
  803138:	d1277604 	addi	r4,gp,-25128
  80313c:	008011c4 	movi	r2,71
  803140:	98c00045 	stb	r3,1(r19)
  803144:	99400085 	stb	r5,2(r19)
  803148:	980000c5 	stb	zero,3(r19)
  80314c:	98000105 	stb	zero,4(r19)
  803150:	d0a77605 	stb	r2,-25128(gp)
  803154:	08008d00 	call	8008d0 <send_cmd>
  803158:	00c04034 	movhi	r3,256
  80315c:	18c44504 	addi	r3,r3,4372
  803160:	18000035 	stwio	zero,0(r3)
  803164:	80000035 	stwio	zero,0(r16)
  803168:	84400035 	stwio	r17,0(r16)
  80316c:	80000035 	stwio	zero,0(r16)
  803170:	84400035 	stwio	r17,0(r16)
  803174:	01000044 	movi	r4,1
  803178:	0800a640 	call	800a64 <response_R>
  80317c:	10803fcc 	andi	r2,r2,255
  803180:	88bf8f36 	bltu	r17,r2,802fc0 <SD_card_init+0x258>
  803184:	0005883a 	mov	r2,zero
  803188:	04004034 	movhi	r16,256
  80318c:	84044804 	addi	r16,r16,4384
  803190:	04400044 	movi	r17,1
  803194:	00c00204 	movi	r3,8
  803198:	80000035 	stwio	zero,0(r16)
  80319c:	84400035 	stwio	r17,0(r16)
  8031a0:	10800044 	addi	r2,r2,1
  8031a4:	10fffc1e 	bne	r2,r3,803198 <SD_card_init+0x430>
  8031a8:	00c00084 	movi	r3,2
  8031ac:	d1277604 	addi	r4,gp,-25128
  8031b0:	00801404 	movi	r2,80
  8031b4:	98c000c5 	stb	r3,3(r19)
  8031b8:	98000105 	stb	zero,4(r19)
  8031bc:	98000045 	stb	zero,1(r19)
  8031c0:	98000085 	stb	zero,2(r19)
  8031c4:	d0a77605 	stb	r2,-25128(gp)
  8031c8:	08008d00 	call	8008d0 <send_cmd>
  8031cc:	00c04034 	movhi	r3,256
  8031d0:	18c44504 	addi	r3,r3,4372
  8031d4:	18000035 	stwio	zero,0(r3)
  8031d8:	80000035 	stwio	zero,0(r16)
  8031dc:	84400035 	stwio	r17,0(r16)
  8031e0:	80000035 	stwio	zero,0(r16)
  8031e4:	84400035 	stwio	r17,0(r16)
  8031e8:	01000044 	movi	r4,1
  8031ec:	0800a640 	call	800a64 <response_R>
  8031f0:	10803fcc 	andi	r2,r2,255
  8031f4:	88bf7236 	bltu	r17,r2,802fc0 <SD_card_init+0x258>
  8031f8:	0005883a 	mov	r2,zero
  8031fc:	d4677745 	stb	r17,-25123(gp)
  803200:	003f7006 	br	802fc4 <SD_card_init+0x25c>

00803204 <main>:
  803204:	deff7d04 	addi	sp,sp,-524
  803208:	dfc08215 	stw	ra,520(sp)
  80320c:	dc408115 	stw	r17,516(sp)
  803210:	dc008015 	stw	r16,512(sp)
  803214:	0802d680 	call	802d68 <SD_card_init>
  803218:	d809883a 	mov	r4,sp
  80321c:	000b883a 	mov	r5,zero
  803220:	01808004 	movi	r6,512
  803224:	0804a800 	call	804a80 <memset>
  803228:	d809883a 	mov	r4,sp
  80322c:	000b883a 	mov	r5,zero
  803230:	01800044 	movi	r6,1
  803234:	0800df40 	call	800df4 <SD_read_lba>
  803238:	d8c07f83 	ldbu	r3,510(sp)
  80323c:	00801544 	movi	r2,85
  803240:	18803026 	beq	r3,r2,803304 <main+0x100>
  803244:	08027380 	call	802738 <init_bs>
  803248:	08033b40 	call	8033b4 <init_audio_codec>
  80324c:	01000044 	movi	r4,1
  803250:	000b883a 	mov	r5,zero
  803254:	01802034 	movhi	r6,128
  803258:	31859404 	addi	r6,r6,5712
  80325c:	080d6900 	call	80d690 <alt_irq_register>
  803260:	00c04034 	movhi	r3,256
  803264:	18c42704 	addi	r3,r3,4252
  803268:	18000035 	stwio	zero,0(r3)
  80326c:	010003c4 	movi	r4,15
  803270:	00804034 	movhi	r2,256
  803274:	10842604 	addi	r2,r2,4248
  803278:	11000035 	stwio	r4,0(r2)
  80327c:	01002074 	movhi	r4,129
  803280:	213ff404 	addi	r4,r4,-48
  803284:	01402074 	movhi	r5,129
  803288:	29503504 	addi	r5,r5,16596
  80328c:	000d883a 	mov	r6,zero
  803290:	01c00044 	movi	r7,1
  803294:	08012100 	call	801210 <search_for_filetype>
  803298:	04004034 	movhi	r16,256
  80329c:	84043804 	addi	r16,r16,4320
  8032a0:	04400044 	movi	r17,1
  8032a4:	80800037 	ldwio	r2,0(r16)
  8032a8:	10c001cc 	andi	r3,r2,7
  8032ac:	d0e75515 	stw	r3,-25260(gp)
  8032b0:	18000c26 	beq	r3,zero,8032e4 <main+0xe0>
  8032b4:	1c400d26 	beq	r3,r17,8032ec <main+0xe8>
  8032b8:	00800084 	movi	r2,2
  8032bc:	18800d26 	beq	r3,r2,8032f4 <main+0xf0>
  8032c0:	00800104 	movi	r2,4
  8032c4:	18800d26 	beq	r3,r2,8032fc <main+0xf8>
  8032c8:	008000c4 	movi	r2,3
  8032cc:	18bff51e 	bne	r3,r2,8032a4 <main+0xa0>
  8032d0:	0801f4c0 	call	801f4c <playdelay>
  8032d4:	80800037 	ldwio	r2,0(r16)
  8032d8:	10c001cc 	andi	r3,r2,7
  8032dc:	d0e75515 	stw	r3,-25260(gp)
  8032e0:	183ff41e 	bne	r3,zero,8032b4 <main+0xb0>
  8032e4:	08025280 	call	802528 <playnormal>
  8032e8:	003fee06 	br	8032a4 <main+0xa0>
  8032ec:	0801d240 	call	801d24 <playdouble>
  8032f0:	003fec06 	br	8032a4 <main+0xa0>
  8032f4:	0801abc0 	call	801abc <playhalf>
  8032f8:	003fea06 	br	8032a4 <main+0xa0>
  8032fc:	08022c00 	call	8022c0 <playreverse>
  803300:	003fe806 	br	8032a4 <main+0xa0>
  803304:	d8c07fc3 	ldbu	r3,511(sp)
  803308:	00802a84 	movi	r2,170
  80330c:	18bfcd1e 	bne	r3,r2,803244 <main+0x40>
  803310:	d9c071c3 	ldbu	r7,455(sp)
  803314:	d8c07203 	ldbu	r3,456(sp)
  803318:	d9007243 	ldbu	r4,457(sp)
  80331c:	d94072c3 	ldbu	r5,459(sp)
  803320:	d8807303 	ldbu	r2,460(sp)
  803324:	d9807343 	ldbu	r6,461(sp)
  803328:	2008963a 	slli	r4,r4,24
  80332c:	280a923a 	slli	r5,r5,8
  803330:	380e923a 	slli	r7,r7,8
  803334:	1806943a 	slli	r3,r3,16
  803338:	1004943a 	slli	r2,r2,16
  80333c:	300c963a 	slli	r6,r6,24
  803340:	da007183 	ldbu	r8,454(sp)
  803344:	da407283 	ldbu	r9,458(sp)
  803348:	1907883a 	add	r3,r3,r4
  80334c:	1185883a 	add	r2,r2,r6
  803350:	4953883a 	add	r9,r9,r5
  803354:	41d1883a 	add	r8,r8,r7
  803358:	40d1883a 	add	r8,r8,r3
  80335c:	4893883a 	add	r9,r9,r2
  803360:	d8c07143 	ldbu	r3,453(sp)
  803364:	d8807043 	ldbu	r2,449(sp)
  803368:	d1278944 	addi	r4,gp,-25051
  80336c:	d1677d04 	addi	r5,gp,-25100
  803370:	20800085 	stb	r2,2(r4)
  803374:	28c00085 	stb	r3,2(r5)
  803378:	d8806f83 	ldbu	r2,446(sp)
  80337c:	d8c06fc3 	ldbu	r3,447(sp)
  803380:	d2278b15 	stw	r8,-25044(gp)
  803384:	d0a75905 	stb	r2,-25244(gp)
  803388:	d0e78945 	stb	r3,-25051(gp)
  80338c:	d8807003 	ldbu	r2,448(sp)
  803390:	d8c07083 	ldbu	r3,450(sp)
  803394:	d2677c15 	stw	r9,-25104(gp)
  803398:	20800045 	stb	r2,1(r4)
  80339c:	d0e76605 	stb	r3,-25192(gp)
  8033a0:	d88070c3 	ldbu	r2,451(sp)
  8033a4:	d8c07103 	ldbu	r3,452(sp)
  8033a8:	d0a77d05 	stb	r2,-25100(gp)
  8033ac:	28c00045 	stb	r3,1(r5)
  8033b0:	003fa406 	br	803244 <main+0x40>

008033b4 <init_audio_codec>:
  8033b4:	deffff04 	addi	sp,sp,-4
  8033b8:	010018c4 	movi	r4,99
  8033bc:	dfc00015 	stw	ra,0(sp)
  8033c0:	08008380 	call	800838 <I2C_Init>
  8033c4:	01400044 	movi	r5,1
  8033c8:	01000d04 	movi	r4,52
  8033cc:	000d883a 	mov	r6,zero
  8033d0:	08007d40 	call	8007d4 <I2C_Send>
  8033d4:	10803fcc 	andi	r2,r2,255
  8033d8:	01002074 	movhi	r4,129
  8033dc:	213ff904 	addi	r4,r4,-28
  8033e0:	10004726 	beq	r2,zero,803500 <init_audio_codec+0x14c>
  8033e4:	0804c300 	call	804c30 <puts>
  8033e8:	000b883a 	mov	r5,zero
  8033ec:	01000204 	movi	r4,8
  8033f0:	000d883a 	mov	r6,zero
  8033f4:	08007d40 	call	8007d4 <I2C_Send>
  8033f8:	01000484 	movi	r4,18
  8033fc:	000b883a 	mov	r5,zero
  803400:	01800044 	movi	r6,1
  803404:	08007d40 	call	8007d4 <I2C_Send>
  803408:	01000d04 	movi	r4,52
  80340c:	01400044 	movi	r5,1
  803410:	000d883a 	mov	r6,zero
  803414:	08007d40 	call	8007d4 <I2C_Send>
  803418:	01000284 	movi	r4,10
  80341c:	000b883a 	mov	r5,zero
  803420:	000d883a 	mov	r6,zero
  803424:	08007d40 	call	8007d4 <I2C_Send>
  803428:	0009883a 	mov	r4,zero
  80342c:	000b883a 	mov	r5,zero
  803430:	01800044 	movi	r6,1
  803434:	08007d40 	call	8007d4 <I2C_Send>
  803438:	01000d04 	movi	r4,52
  80343c:	01400044 	movi	r5,1
  803440:	000d883a 	mov	r6,zero
  803444:	08007d40 	call	8007d4 <I2C_Send>
  803448:	01000304 	movi	r4,12
  80344c:	000b883a 	mov	r5,zero
  803450:	000d883a 	mov	r6,zero
  803454:	08007d40 	call	8007d4 <I2C_Send>
  803458:	0009883a 	mov	r4,zero
  80345c:	000b883a 	mov	r5,zero
  803460:	01800044 	movi	r6,1
  803464:	08007d40 	call	8007d4 <I2C_Send>
  803468:	01000d04 	movi	r4,52
  80346c:	01400044 	movi	r5,1
  803470:	000d883a 	mov	r6,zero
  803474:	08007d40 	call	8007d4 <I2C_Send>
  803478:	01000384 	movi	r4,14
  80347c:	000b883a 	mov	r5,zero
  803480:	000d883a 	mov	r6,zero
  803484:	08007d40 	call	8007d4 <I2C_Send>
  803488:	01000404 	movi	r4,16
  80348c:	000b883a 	mov	r5,zero
  803490:	01800044 	movi	r6,1
  803494:	08007d40 	call	8007d4 <I2C_Send>
  803498:	01000d04 	movi	r4,52
  80349c:	01400044 	movi	r5,1
  8034a0:	000d883a 	mov	r6,zero
  8034a4:	08007d40 	call	8007d4 <I2C_Send>
  8034a8:	01000404 	movi	r4,16
  8034ac:	000b883a 	mov	r5,zero
  8034b0:	000d883a 	mov	r6,zero
  8034b4:	08007d40 	call	8007d4 <I2C_Send>
  8034b8:	01000884 	movi	r4,34
  8034bc:	000b883a 	mov	r5,zero
  8034c0:	01800044 	movi	r6,1
  8034c4:	08007d40 	call	8007d4 <I2C_Send>
  8034c8:	01000d04 	movi	r4,52
  8034cc:	01400044 	movi	r5,1
  8034d0:	000d883a 	mov	r6,zero
  8034d4:	08007d40 	call	8007d4 <I2C_Send>
  8034d8:	01000484 	movi	r4,18
  8034dc:	000b883a 	mov	r5,zero
  8034e0:	000d883a 	mov	r6,zero
  8034e4:	08007d40 	call	8007d4 <I2C_Send>
  8034e8:	01000044 	movi	r4,1
  8034ec:	000b883a 	mov	r5,zero
  8034f0:	200d883a 	mov	r6,r4
  8034f4:	dfc00017 	ldw	ra,0(sp)
  8034f8:	dec00104 	addi	sp,sp,4
  8034fc:	08007d41 	jmpi	8007d4 <I2C_Send>
  803500:	01002074 	movhi	r4,129
  803504:	21000504 	addi	r4,r4,20
  803508:	dfc00017 	ldw	ra,0(sp)
  80350c:	dec00104 	addi	sp,sp,4
  803510:	0804c301 	jmpi	804c30 <puts>

00803514 <ceil>:
  803514:	2805d53a 	srai	r2,r5,20
  803518:	defff604 	addi	sp,sp,-40
  80351c:	dd800615 	stw	r22,24(sp)
  803520:	10c1ffcc 	andi	r3,r2,2047
  803524:	1dbf0044 	addi	r22,r3,-1023
  803528:	008004c4 	movi	r2,19
  80352c:	ddc00715 	stw	r23,28(sp)
  803530:	dc800215 	stw	r18,8(sp)
  803534:	dc400115 	stw	r17,4(sp)
  803538:	dc000015 	stw	r16,0(sp)
  80353c:	dfc00915 	stw	ra,36(sp)
  803540:	df000815 	stw	fp,32(sp)
  803544:	dd400515 	stw	r21,20(sp)
  803548:	dd000415 	stw	r20,16(sp)
  80354c:	dcc00315 	stw	r19,12(sp)
  803550:	2021883a 	mov	r16,r4
  803554:	2823883a 	mov	r17,r5
  803558:	282f883a 	mov	r23,r5
  80355c:	2025883a 	mov	r18,r4
  803560:	15802c16 	blt	r2,r22,803614 <ceil+0x100>
  803564:	b0005416 	blt	r22,zero,8036b8 <ceil+0x1a4>
  803568:	00800434 	movhi	r2,16
  80356c:	10bfffc4 	addi	r2,r2,-1
  803570:	15b9d83a 	sra	fp,r2,r22
  803574:	282f883a 	mov	r23,r5
  803578:	e144703a 	and	r2,fp,r5
  80357c:	1104b03a 	or	r2,r2,r4
  803580:	10001626 	beq	r2,zero,8035dc <ceil+0xc8>
  803584:	00a20034 	movhi	r2,34816
  803588:	109d6704 	addi	r2,r2,30108
  80358c:	00df8e34 	movhi	r3,32312
  803590:	18f90f04 	addi	r3,r3,-7108
  803594:	180f883a 	mov	r7,r3
  803598:	100d883a 	mov	r6,r2
  80359c:	0803e800 	call	803e80 <__adddf3>
  8035a0:	180b883a 	mov	r5,r3
  8035a4:	000d883a 	mov	r6,zero
  8035a8:	000f883a 	mov	r7,zero
  8035ac:	1009883a 	mov	r4,r2
  8035b0:	0803ef40 	call	803ef4 <__gtdf2>
  8035b4:	0080070e 	bge	zero,r2,8035d4 <ceil+0xc0>
  8035b8:	0440030e 	bge	zero,r17,8035c8 <ceil+0xb4>
  8035bc:	00800434 	movhi	r2,16
  8035c0:	1585d83a 	sra	r2,r2,r22
  8035c4:	88af883a 	add	r23,r17,r2
  8035c8:	0704303a 	nor	r2,zero,fp
  8035cc:	b8ae703a 	and	r23,r23,r2
  8035d0:	0025883a 	mov	r18,zero
  8035d4:	9021883a 	mov	r16,r18
  8035d8:	b823883a 	mov	r17,r23
  8035dc:	8005883a 	mov	r2,r16
  8035e0:	8807883a 	mov	r3,r17
  8035e4:	dfc00917 	ldw	ra,36(sp)
  8035e8:	df000817 	ldw	fp,32(sp)
  8035ec:	ddc00717 	ldw	r23,28(sp)
  8035f0:	dd800617 	ldw	r22,24(sp)
  8035f4:	dd400517 	ldw	r21,20(sp)
  8035f8:	dd000417 	ldw	r20,16(sp)
  8035fc:	dcc00317 	ldw	r19,12(sp)
  803600:	dc800217 	ldw	r18,8(sp)
  803604:	dc400117 	ldw	r17,4(sp)
  803608:	dc000017 	ldw	r16,0(sp)
  80360c:	dec00a04 	addi	sp,sp,40
  803610:	f800283a 	ret
  803614:	00800cc4 	movi	r2,51
  803618:	15801f16 	blt	r2,r22,803698 <ceil+0x184>
  80361c:	18befb44 	addi	r2,r3,-1043
  803620:	00ffffc4 	movi	r3,-1
  803624:	18b8d83a 	srl	fp,r3,r2
  803628:	e104703a 	and	r2,fp,r4
  80362c:	103feb26 	beq	r2,zero,8035dc <ceil+0xc8>
  803630:	00a20034 	movhi	r2,34816
  803634:	109d6704 	addi	r2,r2,30108
  803638:	00df8e34 	movhi	r3,32312
  80363c:	18f90f04 	addi	r3,r3,-7108
  803640:	180f883a 	mov	r7,r3
  803644:	100d883a 	mov	r6,r2
  803648:	0803e800 	call	803e80 <__adddf3>
  80364c:	180b883a 	mov	r5,r3
  803650:	000d883a 	mov	r6,zero
  803654:	000f883a 	mov	r7,zero
  803658:	1009883a 	mov	r4,r2
  80365c:	0803ef40 	call	803ef4 <__gtdf2>
  803660:	0080250e 	bge	zero,r2,8036f8 <ceil+0x1e4>
  803664:	0440090e 	bge	zero,r17,80368c <ceil+0x178>
  803668:	00800504 	movi	r2,20
  80366c:	b0802926 	beq	r22,r2,803714 <ceil+0x200>
  803670:	00c00d04 	movi	r3,52
  803674:	1d87c83a 	sub	r3,r3,r22
  803678:	00800044 	movi	r2,1
  80367c:	10c4983a 	sll	r2,r2,r3
  803680:	8085883a 	add	r2,r16,r2
  803684:	14001e36 	bltu	r2,r16,803700 <ceil+0x1ec>
  803688:	1025883a 	mov	r18,r2
  80368c:	0704303a 	nor	r2,zero,fp
  803690:	90a4703a 	and	r18,r18,r2
  803694:	003fcf06 	br	8035d4 <ceil+0xc0>
  803698:	00810004 	movi	r2,1024
  80369c:	b0bfcf1e 	bne	r22,r2,8035dc <ceil+0xc8>
  8036a0:	800d883a 	mov	r6,r16
  8036a4:	280f883a 	mov	r7,r5
  8036a8:	0803e800 	call	803e80 <__adddf3>
  8036ac:	1021883a 	mov	r16,r2
  8036b0:	1823883a 	mov	r17,r3
  8036b4:	003fc906 	br	8035dc <ceil+0xc8>
  8036b8:	00a20034 	movhi	r2,34816
  8036bc:	109d6704 	addi	r2,r2,30108
  8036c0:	00df8e34 	movhi	r3,32312
  8036c4:	18f90f04 	addi	r3,r3,-7108
  8036c8:	180f883a 	mov	r7,r3
  8036cc:	100d883a 	mov	r6,r2
  8036d0:	0803e800 	call	803e80 <__adddf3>
  8036d4:	180b883a 	mov	r5,r3
  8036d8:	000d883a 	mov	r6,zero
  8036dc:	000f883a 	mov	r7,zero
  8036e0:	1009883a 	mov	r4,r2
  8036e4:	0803ef40 	call	803ef4 <__gtdf2>
  8036e8:	00bfba0e 	bge	zero,r2,8035d4 <ceil+0xc0>
  8036ec:	88000b16 	blt	r17,zero,80371c <ceil+0x208>
  8036f0:	8c04b03a 	or	r2,r17,r16
  8036f4:	1000041e 	bne	r2,zero,803708 <ceil+0x1f4>
  8036f8:	882f883a 	mov	r23,r17
  8036fc:	003fb506 	br	8035d4 <ceil+0xc0>
  803700:	8dc00044 	addi	r23,r17,1
  803704:	003fe006 	br	803688 <ceil+0x174>
  803708:	05cffc34 	movhi	r23,16368
  80370c:	0025883a 	mov	r18,zero
  803710:	003fb006 	br	8035d4 <ceil+0xc0>
  803714:	8dc00044 	addi	r23,r17,1
  803718:	003fdc06 	br	80368c <ceil+0x178>
  80371c:	05e00034 	movhi	r23,32768
  803720:	0025883a 	mov	r18,zero
  803724:	003fab06 	br	8035d4 <ceil+0xc0>

00803728 <floor>:
  803728:	2805d53a 	srai	r2,r5,20
  80372c:	defff604 	addi	sp,sp,-40
  803730:	dd800615 	stw	r22,24(sp)
  803734:	10c1ffcc 	andi	r3,r2,2047
  803738:	1dbf0044 	addi	r22,r3,-1023
  80373c:	008004c4 	movi	r2,19
  803740:	ddc00715 	stw	r23,28(sp)
  803744:	dc800215 	stw	r18,8(sp)
  803748:	dc400115 	stw	r17,4(sp)
  80374c:	dc000015 	stw	r16,0(sp)
  803750:	dfc00915 	stw	ra,36(sp)
  803754:	df000815 	stw	fp,32(sp)
  803758:	dd400515 	stw	r21,20(sp)
  80375c:	dd000415 	stw	r20,16(sp)
  803760:	dcc00315 	stw	r19,12(sp)
  803764:	2021883a 	mov	r16,r4
  803768:	2823883a 	mov	r17,r5
  80376c:	282f883a 	mov	r23,r5
  803770:	2025883a 	mov	r18,r4
  803774:	15802916 	blt	r2,r22,80381c <floor+0xf4>
  803778:	b0004816 	blt	r22,zero,80389c <floor+0x174>
  80377c:	00800434 	movhi	r2,16
  803780:	10bfffc4 	addi	r2,r2,-1
  803784:	15b9d83a 	sra	fp,r2,r22
  803788:	282f883a 	mov	r23,r5
  80378c:	e144703a 	and	r2,fp,r5
  803790:	1104b03a 	or	r2,r2,r4
  803794:	10001326 	beq	r2,zero,8037e4 <floor+0xbc>
  803798:	00a20034 	movhi	r2,34816
  80379c:	109d6704 	addi	r2,r2,30108
  8037a0:	00df8e34 	movhi	r3,32312
  8037a4:	18f90f04 	addi	r3,r3,-7108
  8037a8:	180f883a 	mov	r7,r3
  8037ac:	100d883a 	mov	r6,r2
  8037b0:	0803e800 	call	803e80 <__adddf3>
  8037b4:	180b883a 	mov	r5,r3
  8037b8:	000d883a 	mov	r6,zero
  8037bc:	000f883a 	mov	r7,zero
  8037c0:	1009883a 	mov	r4,r2
  8037c4:	0803ef40 	call	803ef4 <__gtdf2>
  8037c8:	0080040e 	bge	zero,r2,8037dc <floor+0xb4>
  8037cc:	88004416 	blt	r17,zero,8038e0 <floor+0x1b8>
  8037d0:	0704303a 	nor	r2,zero,fp
  8037d4:	b8ae703a 	and	r23,r23,r2
  8037d8:	0025883a 	mov	r18,zero
  8037dc:	9021883a 	mov	r16,r18
  8037e0:	b823883a 	mov	r17,r23
  8037e4:	8005883a 	mov	r2,r16
  8037e8:	8807883a 	mov	r3,r17
  8037ec:	dfc00917 	ldw	ra,36(sp)
  8037f0:	df000817 	ldw	fp,32(sp)
  8037f4:	ddc00717 	ldw	r23,28(sp)
  8037f8:	dd800617 	ldw	r22,24(sp)
  8037fc:	dd400517 	ldw	r21,20(sp)
  803800:	dd000417 	ldw	r20,16(sp)
  803804:	dcc00317 	ldw	r19,12(sp)
  803808:	dc800217 	ldw	r18,8(sp)
  80380c:	dc400117 	ldw	r17,4(sp)
  803810:	dc000017 	ldw	r16,0(sp)
  803814:	dec00a04 	addi	sp,sp,40
  803818:	f800283a 	ret
  80381c:	00800cc4 	movi	r2,51
  803820:	15801616 	blt	r2,r22,80387c <floor+0x154>
  803824:	18befb44 	addi	r2,r3,-1043
  803828:	00ffffc4 	movi	r3,-1
  80382c:	18b8d83a 	srl	fp,r3,r2
  803830:	e104703a 	and	r2,fp,r4
  803834:	103feb26 	beq	r2,zero,8037e4 <floor+0xbc>
  803838:	00a20034 	movhi	r2,34816
  80383c:	109d6704 	addi	r2,r2,30108
  803840:	00df8e34 	movhi	r3,32312
  803844:	18f90f04 	addi	r3,r3,-7108
  803848:	180f883a 	mov	r7,r3
  80384c:	100d883a 	mov	r6,r2
  803850:	0803e800 	call	803e80 <__adddf3>
  803854:	180b883a 	mov	r5,r3
  803858:	000d883a 	mov	r6,zero
  80385c:	000f883a 	mov	r7,zero
  803860:	1009883a 	mov	r4,r2
  803864:	0803ef40 	call	803ef4 <__gtdf2>
  803868:	0080210e 	bge	zero,r2,8038f0 <floor+0x1c8>
  80386c:	88002216 	blt	r17,zero,8038f8 <floor+0x1d0>
  803870:	0704303a 	nor	r2,zero,fp
  803874:	90a4703a 	and	r18,r18,r2
  803878:	003fd806 	br	8037dc <floor+0xb4>
  80387c:	00810004 	movi	r2,1024
  803880:	b0bfd81e 	bne	r22,r2,8037e4 <floor+0xbc>
  803884:	800d883a 	mov	r6,r16
  803888:	280f883a 	mov	r7,r5
  80388c:	0803e800 	call	803e80 <__adddf3>
  803890:	1021883a 	mov	r16,r2
  803894:	1823883a 	mov	r17,r3
  803898:	003fd206 	br	8037e4 <floor+0xbc>
  80389c:	00a20034 	movhi	r2,34816
  8038a0:	109d6704 	addi	r2,r2,30108
  8038a4:	00df8e34 	movhi	r3,32312
  8038a8:	18f90f04 	addi	r3,r3,-7108
  8038ac:	180f883a 	mov	r7,r3
  8038b0:	100d883a 	mov	r6,r2
  8038b4:	0803e800 	call	803e80 <__adddf3>
  8038b8:	180b883a 	mov	r5,r3
  8038bc:	000d883a 	mov	r6,zero
  8038c0:	000f883a 	mov	r7,zero
  8038c4:	1009883a 	mov	r4,r2
  8038c8:	0803ef40 	call	803ef4 <__gtdf2>
  8038cc:	00bfc30e 	bge	zero,r2,8037dc <floor+0xb4>
  8038d0:	88001416 	blt	r17,zero,803924 <floor+0x1fc>
  8038d4:	002f883a 	mov	r23,zero
  8038d8:	0025883a 	mov	r18,zero
  8038dc:	003fbf06 	br	8037dc <floor+0xb4>
  8038e0:	00800434 	movhi	r2,16
  8038e4:	1585d83a 	sra	r2,r2,r22
  8038e8:	88af883a 	add	r23,r17,r2
  8038ec:	003fb806 	br	8037d0 <floor+0xa8>
  8038f0:	882f883a 	mov	r23,r17
  8038f4:	003fb906 	br	8037dc <floor+0xb4>
  8038f8:	00800504 	movi	r2,20
  8038fc:	b0801126 	beq	r22,r2,803944 <floor+0x21c>
  803900:	00c00d04 	movi	r3,52
  803904:	1d87c83a 	sub	r3,r3,r22
  803908:	00800044 	movi	r2,1
  80390c:	10c4983a 	sll	r2,r2,r3
  803910:	8085883a 	add	r2,r16,r2
  803914:	1400012e 	bgeu	r2,r16,80391c <floor+0x1f4>
  803918:	8dc00044 	addi	r23,r17,1
  80391c:	1025883a 	mov	r18,r2
  803920:	003fd306 	br	803870 <floor+0x148>
  803924:	00a00034 	movhi	r2,32768
  803928:	10bfffc4 	addi	r2,r2,-1
  80392c:	8884703a 	and	r2,r17,r2
  803930:	8084b03a 	or	r2,r16,r2
  803934:	103fee26 	beq	r2,zero,8038f0 <floor+0x1c8>
  803938:	05effc34 	movhi	r23,49136
  80393c:	0025883a 	mov	r18,zero
  803940:	003fa606 	br	8037dc <floor+0xb4>
  803944:	8dc00044 	addi	r23,r17,1
  803948:	003fc906 	br	803870 <floor+0x148>

0080394c <__fixunsdfsi>:
  80394c:	defffb04 	addi	sp,sp,-20
  803950:	dc400115 	stw	r17,4(sp)
  803954:	dc000015 	stw	r16,0(sp)
  803958:	04507834 	movhi	r17,16864
  80395c:	0021883a 	mov	r16,zero
  803960:	800d883a 	mov	r6,r16
  803964:	880f883a 	mov	r7,r17
  803968:	dcc00315 	stw	r19,12(sp)
  80396c:	dc800215 	stw	r18,8(sp)
  803970:	2827883a 	mov	r19,r5
  803974:	2025883a 	mov	r18,r4
  803978:	dfc00415 	stw	ra,16(sp)
  80397c:	0803f7c0 	call	803f7c <__gedf2>
  803980:	000d883a 	mov	r6,zero
  803984:	880f883a 	mov	r7,r17
  803988:	980b883a 	mov	r5,r19
  80398c:	9009883a 	mov	r4,r18
  803990:	10000d16 	blt	r2,zero,8039c8 <__fixunsdfsi+0x7c>
  803994:	0803e000 	call	803e00 <__subdf3>
  803998:	180b883a 	mov	r5,r3
  80399c:	1009883a 	mov	r4,r2
  8039a0:	08040fc0 	call	8040fc <__fixdfsi>
  8039a4:	00e00034 	movhi	r3,32768
  8039a8:	10c5883a 	add	r2,r2,r3
  8039ac:	dfc00417 	ldw	ra,16(sp)
  8039b0:	dcc00317 	ldw	r19,12(sp)
  8039b4:	dc800217 	ldw	r18,8(sp)
  8039b8:	dc400117 	ldw	r17,4(sp)
  8039bc:	dc000017 	ldw	r16,0(sp)
  8039c0:	dec00504 	addi	sp,sp,20
  8039c4:	f800283a 	ret
  8039c8:	980b883a 	mov	r5,r19
  8039cc:	9009883a 	mov	r4,r18
  8039d0:	08040fc0 	call	8040fc <__fixdfsi>
  8039d4:	dfc00417 	ldw	ra,16(sp)
  8039d8:	dcc00317 	ldw	r19,12(sp)
  8039dc:	dc800217 	ldw	r18,8(sp)
  8039e0:	dc400117 	ldw	r17,4(sp)
  8039e4:	dc000017 	ldw	r16,0(sp)
  8039e8:	dec00504 	addi	sp,sp,20
  8039ec:	f800283a 	ret

008039f0 <_fpadd_parts>:
  8039f0:	defff804 	addi	sp,sp,-32
  8039f4:	dcc00315 	stw	r19,12(sp)
  8039f8:	2027883a 	mov	r19,r4
  8039fc:	21000017 	ldw	r4,0(r4)
  803a00:	00c00044 	movi	r3,1
  803a04:	dd400515 	stw	r21,20(sp)
  803a08:	dd000415 	stw	r20,16(sp)
  803a0c:	ddc00715 	stw	r23,28(sp)
  803a10:	dd800615 	stw	r22,24(sp)
  803a14:	dc800215 	stw	r18,8(sp)
  803a18:	dc400115 	stw	r17,4(sp)
  803a1c:	dc000015 	stw	r16,0(sp)
  803a20:	282b883a 	mov	r21,r5
  803a24:	3029883a 	mov	r20,r6
  803a28:	1900632e 	bgeu	r3,r4,803bb8 <_fpadd_parts+0x1c8>
  803a2c:	28800017 	ldw	r2,0(r5)
  803a30:	1880812e 	bgeu	r3,r2,803c38 <_fpadd_parts+0x248>
  803a34:	00c00104 	movi	r3,4
  803a38:	20c0dc26 	beq	r4,r3,803dac <_fpadd_parts+0x3bc>
  803a3c:	10c07e26 	beq	r2,r3,803c38 <_fpadd_parts+0x248>
  803a40:	00c00084 	movi	r3,2
  803a44:	10c06726 	beq	r2,r3,803be4 <_fpadd_parts+0x1f4>
  803a48:	20c07b26 	beq	r4,r3,803c38 <_fpadd_parts+0x248>
  803a4c:	9dc00217 	ldw	r23,8(r19)
  803a50:	28c00217 	ldw	r3,8(r5)
  803a54:	9c400317 	ldw	r17,12(r19)
  803a58:	2bc00317 	ldw	r15,12(r5)
  803a5c:	b8cdc83a 	sub	r6,r23,r3
  803a60:	9c800417 	ldw	r18,16(r19)
  803a64:	2c000417 	ldw	r16,16(r5)
  803a68:	3009883a 	mov	r4,r6
  803a6c:	30009716 	blt	r6,zero,803ccc <_fpadd_parts+0x2dc>
  803a70:	00800fc4 	movi	r2,63
  803a74:	11806b16 	blt	r2,r6,803c24 <_fpadd_parts+0x234>
  803a78:	0100a40e 	bge	zero,r4,803d0c <_fpadd_parts+0x31c>
  803a7c:	35bff804 	addi	r22,r6,-32
  803a80:	b000bc16 	blt	r22,zero,803d74 <_fpadd_parts+0x384>
  803a84:	8596d83a 	srl	r11,r16,r22
  803a88:	0019883a 	mov	r12,zero
  803a8c:	0013883a 	mov	r9,zero
  803a90:	01000044 	movi	r4,1
  803a94:	0015883a 	mov	r10,zero
  803a98:	b000be16 	blt	r22,zero,803d94 <_fpadd_parts+0x3a4>
  803a9c:	2590983a 	sll	r8,r4,r22
  803aa0:	000f883a 	mov	r7,zero
  803aa4:	00bfffc4 	movi	r2,-1
  803aa8:	3889883a 	add	r4,r7,r2
  803aac:	408b883a 	add	r5,r8,r2
  803ab0:	21cd803a 	cmpltu	r6,r4,r7
  803ab4:	314b883a 	add	r5,r6,r5
  803ab8:	7904703a 	and	r2,r15,r4
  803abc:	8146703a 	and	r3,r16,r5
  803ac0:	10c4b03a 	or	r2,r2,r3
  803ac4:	10000226 	beq	r2,zero,803ad0 <_fpadd_parts+0xe0>
  803ac8:	02400044 	movi	r9,1
  803acc:	0015883a 	mov	r10,zero
  803ad0:	5a5eb03a 	or	r15,r11,r9
  803ad4:	62a0b03a 	or	r16,r12,r10
  803ad8:	99400117 	ldw	r5,4(r19)
  803adc:	a8800117 	ldw	r2,4(r21)
  803ae0:	28806e26 	beq	r5,r2,803c9c <_fpadd_parts+0x2ac>
  803ae4:	28006626 	beq	r5,zero,803c80 <_fpadd_parts+0x290>
  803ae8:	7c45c83a 	sub	r2,r15,r17
  803aec:	7889803a 	cmpltu	r4,r15,r2
  803af0:	8487c83a 	sub	r3,r16,r18
  803af4:	1909c83a 	sub	r4,r3,r4
  803af8:	100d883a 	mov	r6,r2
  803afc:	200f883a 	mov	r7,r4
  803b00:	38007716 	blt	r7,zero,803ce0 <_fpadd_parts+0x2f0>
  803b04:	a5c00215 	stw	r23,8(r20)
  803b08:	a1c00415 	stw	r7,16(r20)
  803b0c:	a0000115 	stw	zero,4(r20)
  803b10:	a1800315 	stw	r6,12(r20)
  803b14:	a2000317 	ldw	r8,12(r20)
  803b18:	a2400417 	ldw	r9,16(r20)
  803b1c:	00bfffc4 	movi	r2,-1
  803b20:	408b883a 	add	r5,r8,r2
  803b24:	2a09803a 	cmpltu	r4,r5,r8
  803b28:	488d883a 	add	r6,r9,r2
  803b2c:	01c40034 	movhi	r7,4096
  803b30:	39ffffc4 	addi	r7,r7,-1
  803b34:	218d883a 	add	r6,r4,r6
  803b38:	39801736 	bltu	r7,r6,803b98 <_fpadd_parts+0x1a8>
  803b3c:	31c06526 	beq	r6,r7,803cd4 <_fpadd_parts+0x2e4>
  803b40:	a3000217 	ldw	r12,8(r20)
  803b44:	4209883a 	add	r4,r8,r8
  803b48:	00bfffc4 	movi	r2,-1
  803b4c:	220f803a 	cmpltu	r7,r4,r8
  803b50:	4a4b883a 	add	r5,r9,r9
  803b54:	394f883a 	add	r7,r7,r5
  803b58:	2095883a 	add	r10,r4,r2
  803b5c:	3897883a 	add	r11,r7,r2
  803b60:	510d803a 	cmpltu	r6,r10,r4
  803b64:	6099883a 	add	r12,r12,r2
  803b68:	32d7883a 	add	r11,r6,r11
  803b6c:	00840034 	movhi	r2,4096
  803b70:	10bfffc4 	addi	r2,r2,-1
  803b74:	2011883a 	mov	r8,r4
  803b78:	3813883a 	mov	r9,r7
  803b7c:	a1000315 	stw	r4,12(r20)
  803b80:	a1c00415 	stw	r7,16(r20)
  803b84:	a3000215 	stw	r12,8(r20)
  803b88:	12c00336 	bltu	r2,r11,803b98 <_fpadd_parts+0x1a8>
  803b8c:	58bfed1e 	bne	r11,r2,803b44 <_fpadd_parts+0x154>
  803b90:	00bfff84 	movi	r2,-2
  803b94:	12bfeb2e 	bgeu	r2,r10,803b44 <_fpadd_parts+0x154>
  803b98:	a2800417 	ldw	r10,16(r20)
  803b9c:	008000c4 	movi	r2,3
  803ba0:	00c80034 	movhi	r3,8192
  803ba4:	18ffffc4 	addi	r3,r3,-1
  803ba8:	a2400317 	ldw	r9,12(r20)
  803bac:	a0800015 	stw	r2,0(r20)
  803bb0:	1a802336 	bltu	r3,r10,803c40 <_fpadd_parts+0x250>
  803bb4:	a027883a 	mov	r19,r20
  803bb8:	9805883a 	mov	r2,r19
  803bbc:	ddc00717 	ldw	r23,28(sp)
  803bc0:	dd800617 	ldw	r22,24(sp)
  803bc4:	dd400517 	ldw	r21,20(sp)
  803bc8:	dd000417 	ldw	r20,16(sp)
  803bcc:	dcc00317 	ldw	r19,12(sp)
  803bd0:	dc800217 	ldw	r18,8(sp)
  803bd4:	dc400117 	ldw	r17,4(sp)
  803bd8:	dc000017 	ldw	r16,0(sp)
  803bdc:	dec00804 	addi	sp,sp,32
  803be0:	f800283a 	ret
  803be4:	20fff41e 	bne	r4,r3,803bb8 <_fpadd_parts+0x1c8>
  803be8:	31000015 	stw	r4,0(r6)
  803bec:	98800117 	ldw	r2,4(r19)
  803bf0:	30800115 	stw	r2,4(r6)
  803bf4:	98c00217 	ldw	r3,8(r19)
  803bf8:	30c00215 	stw	r3,8(r6)
  803bfc:	98800317 	ldw	r2,12(r19)
  803c00:	30800315 	stw	r2,12(r6)
  803c04:	98c00417 	ldw	r3,16(r19)
  803c08:	30c00415 	stw	r3,16(r6)
  803c0c:	98800117 	ldw	r2,4(r19)
  803c10:	28c00117 	ldw	r3,4(r5)
  803c14:	3027883a 	mov	r19,r6
  803c18:	10c4703a 	and	r2,r2,r3
  803c1c:	30800115 	stw	r2,4(r6)
  803c20:	003fe506 	br	803bb8 <_fpadd_parts+0x1c8>
  803c24:	1dc02616 	blt	r3,r23,803cc0 <_fpadd_parts+0x2d0>
  803c28:	0023883a 	mov	r17,zero
  803c2c:	182f883a 	mov	r23,r3
  803c30:	0025883a 	mov	r18,zero
  803c34:	003fa806 	br	803ad8 <_fpadd_parts+0xe8>
  803c38:	a827883a 	mov	r19,r21
  803c3c:	003fde06 	br	803bb8 <_fpadd_parts+0x1c8>
  803c40:	01800044 	movi	r6,1
  803c44:	500497fa 	slli	r2,r10,31
  803c48:	4808d07a 	srli	r4,r9,1
  803c4c:	518ad83a 	srl	r5,r10,r6
  803c50:	a2000217 	ldw	r8,8(r20)
  803c54:	1108b03a 	or	r4,r2,r4
  803c58:	0007883a 	mov	r3,zero
  803c5c:	4984703a 	and	r2,r9,r6
  803c60:	208cb03a 	or	r6,r4,r2
  803c64:	28ceb03a 	or	r7,r5,r3
  803c68:	42000044 	addi	r8,r8,1
  803c6c:	a027883a 	mov	r19,r20
  803c70:	a1c00415 	stw	r7,16(r20)
  803c74:	a2000215 	stw	r8,8(r20)
  803c78:	a1800315 	stw	r6,12(r20)
  803c7c:	003fce06 	br	803bb8 <_fpadd_parts+0x1c8>
  803c80:	8bc5c83a 	sub	r2,r17,r15
  803c84:	8889803a 	cmpltu	r4,r17,r2
  803c88:	9407c83a 	sub	r3,r18,r16
  803c8c:	1909c83a 	sub	r4,r3,r4
  803c90:	100d883a 	mov	r6,r2
  803c94:	200f883a 	mov	r7,r4
  803c98:	003f9906 	br	803b00 <_fpadd_parts+0x110>
  803c9c:	8bc5883a 	add	r2,r17,r15
  803ca0:	1449803a 	cmpltu	r4,r2,r17
  803ca4:	9407883a 	add	r3,r18,r16
  803ca8:	20c9883a 	add	r4,r4,r3
  803cac:	a1400115 	stw	r5,4(r20)
  803cb0:	a5c00215 	stw	r23,8(r20)
  803cb4:	a0800315 	stw	r2,12(r20)
  803cb8:	a1000415 	stw	r4,16(r20)
  803cbc:	003fb606 	br	803b98 <_fpadd_parts+0x1a8>
  803cc0:	001f883a 	mov	r15,zero
  803cc4:	0021883a 	mov	r16,zero
  803cc8:	003f8306 	br	803ad8 <_fpadd_parts+0xe8>
  803ccc:	018dc83a 	sub	r6,zero,r6
  803cd0:	003f6706 	br	803a70 <_fpadd_parts+0x80>
  803cd4:	00bfff84 	movi	r2,-2
  803cd8:	117faf36 	bltu	r2,r5,803b98 <_fpadd_parts+0x1a8>
  803cdc:	003f9806 	br	803b40 <_fpadd_parts+0x150>
  803ce0:	0005883a 	mov	r2,zero
  803ce4:	1189c83a 	sub	r4,r2,r6
  803ce8:	1105803a 	cmpltu	r2,r2,r4
  803cec:	01cbc83a 	sub	r5,zero,r7
  803cf0:	2885c83a 	sub	r2,r5,r2
  803cf4:	01800044 	movi	r6,1
  803cf8:	a1800115 	stw	r6,4(r20)
  803cfc:	a5c00215 	stw	r23,8(r20)
  803d00:	a1000315 	stw	r4,12(r20)
  803d04:	a0800415 	stw	r2,16(r20)
  803d08:	003f8206 	br	803b14 <_fpadd_parts+0x124>
  803d0c:	203f7226 	beq	r4,zero,803ad8 <_fpadd_parts+0xe8>
  803d10:	35bff804 	addi	r22,r6,-32
  803d14:	b9af883a 	add	r23,r23,r6
  803d18:	b0003116 	blt	r22,zero,803de0 <_fpadd_parts+0x3f0>
  803d1c:	959ad83a 	srl	r13,r18,r22
  803d20:	001d883a 	mov	r14,zero
  803d24:	000f883a 	mov	r7,zero
  803d28:	01000044 	movi	r4,1
  803d2c:	0011883a 	mov	r8,zero
  803d30:	b0002516 	blt	r22,zero,803dc8 <_fpadd_parts+0x3d8>
  803d34:	2594983a 	sll	r10,r4,r22
  803d38:	0013883a 	mov	r9,zero
  803d3c:	00bfffc4 	movi	r2,-1
  803d40:	4889883a 	add	r4,r9,r2
  803d44:	508b883a 	add	r5,r10,r2
  803d48:	224d803a 	cmpltu	r6,r4,r9
  803d4c:	314b883a 	add	r5,r6,r5
  803d50:	8904703a 	and	r2,r17,r4
  803d54:	9146703a 	and	r3,r18,r5
  803d58:	10c4b03a 	or	r2,r2,r3
  803d5c:	10000226 	beq	r2,zero,803d68 <_fpadd_parts+0x378>
  803d60:	01c00044 	movi	r7,1
  803d64:	0011883a 	mov	r8,zero
  803d68:	69e2b03a 	or	r17,r13,r7
  803d6c:	7224b03a 	or	r18,r14,r8
  803d70:	003f5906 	br	803ad8 <_fpadd_parts+0xe8>
  803d74:	8407883a 	add	r3,r16,r16
  803d78:	008007c4 	movi	r2,31
  803d7c:	1185c83a 	sub	r2,r2,r6
  803d80:	1886983a 	sll	r3,r3,r2
  803d84:	7996d83a 	srl	r11,r15,r6
  803d88:	8198d83a 	srl	r12,r16,r6
  803d8c:	1ad6b03a 	or	r11,r3,r11
  803d90:	003f3e06 	br	803a8c <_fpadd_parts+0x9c>
  803d94:	2006d07a 	srli	r3,r4,1
  803d98:	008007c4 	movi	r2,31
  803d9c:	1185c83a 	sub	r2,r2,r6
  803da0:	1890d83a 	srl	r8,r3,r2
  803da4:	218e983a 	sll	r7,r4,r6
  803da8:	003f3e06 	br	803aa4 <_fpadd_parts+0xb4>
  803dac:	113f821e 	bne	r2,r4,803bb8 <_fpadd_parts+0x1c8>
  803db0:	28c00117 	ldw	r3,4(r5)
  803db4:	98800117 	ldw	r2,4(r19)
  803db8:	10ff7f26 	beq	r2,r3,803bb8 <_fpadd_parts+0x1c8>
  803dbc:	04c02074 	movhi	r19,129
  803dc0:	9cc00e04 	addi	r19,r19,56
  803dc4:	003f7c06 	br	803bb8 <_fpadd_parts+0x1c8>
  803dc8:	2006d07a 	srli	r3,r4,1
  803dcc:	008007c4 	movi	r2,31
  803dd0:	1185c83a 	sub	r2,r2,r6
  803dd4:	1894d83a 	srl	r10,r3,r2
  803dd8:	2192983a 	sll	r9,r4,r6
  803ddc:	003fd706 	br	803d3c <_fpadd_parts+0x34c>
  803de0:	9487883a 	add	r3,r18,r18
  803de4:	008007c4 	movi	r2,31
  803de8:	1185c83a 	sub	r2,r2,r6
  803dec:	1886983a 	sll	r3,r3,r2
  803df0:	899ad83a 	srl	r13,r17,r6
  803df4:	919cd83a 	srl	r14,r18,r6
  803df8:	1b5ab03a 	or	r13,r3,r13
  803dfc:	003fc906 	br	803d24 <_fpadd_parts+0x334>

00803e00 <__subdf3>:
  803e00:	deffea04 	addi	sp,sp,-88
  803e04:	dcc01415 	stw	r19,80(sp)
  803e08:	dcc00404 	addi	r19,sp,16
  803e0c:	2011883a 	mov	r8,r4
  803e10:	2813883a 	mov	r9,r5
  803e14:	dc401315 	stw	r17,76(sp)
  803e18:	d809883a 	mov	r4,sp
  803e1c:	980b883a 	mov	r5,r19
  803e20:	dc400904 	addi	r17,sp,36
  803e24:	dfc01515 	stw	ra,84(sp)
  803e28:	da400115 	stw	r9,4(sp)
  803e2c:	d9c00315 	stw	r7,12(sp)
  803e30:	da000015 	stw	r8,0(sp)
  803e34:	d9800215 	stw	r6,8(sp)
  803e38:	08048800 	call	804880 <__unpack_d>
  803e3c:	d9000204 	addi	r4,sp,8
  803e40:	880b883a 	mov	r5,r17
  803e44:	08048800 	call	804880 <__unpack_d>
  803e48:	d8800a17 	ldw	r2,40(sp)
  803e4c:	880b883a 	mov	r5,r17
  803e50:	9809883a 	mov	r4,r19
  803e54:	d9800e04 	addi	r6,sp,56
  803e58:	1080005c 	xori	r2,r2,1
  803e5c:	d8800a15 	stw	r2,40(sp)
  803e60:	08039f00 	call	8039f0 <_fpadd_parts>
  803e64:	1009883a 	mov	r4,r2
  803e68:	080456c0 	call	80456c <__pack_d>
  803e6c:	dfc01517 	ldw	ra,84(sp)
  803e70:	dcc01417 	ldw	r19,80(sp)
  803e74:	dc401317 	ldw	r17,76(sp)
  803e78:	dec01604 	addi	sp,sp,88
  803e7c:	f800283a 	ret

00803e80 <__adddf3>:
  803e80:	deffea04 	addi	sp,sp,-88
  803e84:	dcc01415 	stw	r19,80(sp)
  803e88:	dcc00404 	addi	r19,sp,16
  803e8c:	2011883a 	mov	r8,r4
  803e90:	2813883a 	mov	r9,r5
  803e94:	dc401315 	stw	r17,76(sp)
  803e98:	d809883a 	mov	r4,sp
  803e9c:	980b883a 	mov	r5,r19
  803ea0:	dc400904 	addi	r17,sp,36
  803ea4:	dfc01515 	stw	ra,84(sp)
  803ea8:	da400115 	stw	r9,4(sp)
  803eac:	d9c00315 	stw	r7,12(sp)
  803eb0:	da000015 	stw	r8,0(sp)
  803eb4:	d9800215 	stw	r6,8(sp)
  803eb8:	08048800 	call	804880 <__unpack_d>
  803ebc:	d9000204 	addi	r4,sp,8
  803ec0:	880b883a 	mov	r5,r17
  803ec4:	08048800 	call	804880 <__unpack_d>
  803ec8:	d9800e04 	addi	r6,sp,56
  803ecc:	9809883a 	mov	r4,r19
  803ed0:	880b883a 	mov	r5,r17
  803ed4:	08039f00 	call	8039f0 <_fpadd_parts>
  803ed8:	1009883a 	mov	r4,r2
  803edc:	080456c0 	call	80456c <__pack_d>
  803ee0:	dfc01517 	ldw	ra,84(sp)
  803ee4:	dcc01417 	ldw	r19,80(sp)
  803ee8:	dc401317 	ldw	r17,76(sp)
  803eec:	dec01604 	addi	sp,sp,88
  803ef0:	f800283a 	ret

00803ef4 <__gtdf2>:
  803ef4:	deffef04 	addi	sp,sp,-68
  803ef8:	dc400f15 	stw	r17,60(sp)
  803efc:	dc400404 	addi	r17,sp,16
  803f00:	2005883a 	mov	r2,r4
  803f04:	2807883a 	mov	r3,r5
  803f08:	dc000e15 	stw	r16,56(sp)
  803f0c:	d809883a 	mov	r4,sp
  803f10:	880b883a 	mov	r5,r17
  803f14:	dc000904 	addi	r16,sp,36
  803f18:	d8c00115 	stw	r3,4(sp)
  803f1c:	d8800015 	stw	r2,0(sp)
  803f20:	d9800215 	stw	r6,8(sp)
  803f24:	dfc01015 	stw	ra,64(sp)
  803f28:	d9c00315 	stw	r7,12(sp)
  803f2c:	08048800 	call	804880 <__unpack_d>
  803f30:	d9000204 	addi	r4,sp,8
  803f34:	800b883a 	mov	r5,r16
  803f38:	08048800 	call	804880 <__unpack_d>
  803f3c:	d8800417 	ldw	r2,16(sp)
  803f40:	00c00044 	movi	r3,1
  803f44:	01bfffc4 	movi	r6,-1
  803f48:	1880062e 	bgeu	r3,r2,803f64 <__gtdf2+0x70>
  803f4c:	d8800917 	ldw	r2,36(sp)
  803f50:	8809883a 	mov	r4,r17
  803f54:	800b883a 	mov	r5,r16
  803f58:	1880022e 	bgeu	r3,r2,803f64 <__gtdf2+0x70>
  803f5c:	08049b80 	call	8049b8 <__fpcmp_parts_d>
  803f60:	100d883a 	mov	r6,r2
  803f64:	3005883a 	mov	r2,r6
  803f68:	dfc01017 	ldw	ra,64(sp)
  803f6c:	dc400f17 	ldw	r17,60(sp)
  803f70:	dc000e17 	ldw	r16,56(sp)
  803f74:	dec01104 	addi	sp,sp,68
  803f78:	f800283a 	ret

00803f7c <__gedf2>:
  803f7c:	deffef04 	addi	sp,sp,-68
  803f80:	dc400f15 	stw	r17,60(sp)
  803f84:	dc400404 	addi	r17,sp,16
  803f88:	2005883a 	mov	r2,r4
  803f8c:	2807883a 	mov	r3,r5
  803f90:	dc000e15 	stw	r16,56(sp)
  803f94:	d809883a 	mov	r4,sp
  803f98:	880b883a 	mov	r5,r17
  803f9c:	dc000904 	addi	r16,sp,36
  803fa0:	d8c00115 	stw	r3,4(sp)
  803fa4:	d8800015 	stw	r2,0(sp)
  803fa8:	d9800215 	stw	r6,8(sp)
  803fac:	dfc01015 	stw	ra,64(sp)
  803fb0:	d9c00315 	stw	r7,12(sp)
  803fb4:	08048800 	call	804880 <__unpack_d>
  803fb8:	d9000204 	addi	r4,sp,8
  803fbc:	800b883a 	mov	r5,r16
  803fc0:	08048800 	call	804880 <__unpack_d>
  803fc4:	d8800417 	ldw	r2,16(sp)
  803fc8:	00c00044 	movi	r3,1
  803fcc:	01bfffc4 	movi	r6,-1
  803fd0:	1880062e 	bgeu	r3,r2,803fec <__gedf2+0x70>
  803fd4:	d8800917 	ldw	r2,36(sp)
  803fd8:	8809883a 	mov	r4,r17
  803fdc:	800b883a 	mov	r5,r16
  803fe0:	1880022e 	bgeu	r3,r2,803fec <__gedf2+0x70>
  803fe4:	08049b80 	call	8049b8 <__fpcmp_parts_d>
  803fe8:	100d883a 	mov	r6,r2
  803fec:	3005883a 	mov	r2,r6
  803ff0:	dfc01017 	ldw	ra,64(sp)
  803ff4:	dc400f17 	ldw	r17,60(sp)
  803ff8:	dc000e17 	ldw	r16,56(sp)
  803ffc:	dec01104 	addi	sp,sp,68
  804000:	f800283a 	ret

00804004 <__floatsidf>:
  804004:	2006d7fa 	srli	r3,r4,31
  804008:	defff604 	addi	sp,sp,-40
  80400c:	008000c4 	movi	r2,3
  804010:	dfc00915 	stw	ra,36(sp)
  804014:	dcc00815 	stw	r19,32(sp)
  804018:	dc800715 	stw	r18,28(sp)
  80401c:	dc400615 	stw	r17,24(sp)
  804020:	dc000515 	stw	r16,20(sp)
  804024:	d8800015 	stw	r2,0(sp)
  804028:	d8c00115 	stw	r3,4(sp)
  80402c:	20000f1e 	bne	r4,zero,80406c <__floatsidf+0x68>
  804030:	00800084 	movi	r2,2
  804034:	d8800015 	stw	r2,0(sp)
  804038:	d809883a 	mov	r4,sp
  80403c:	080456c0 	call	80456c <__pack_d>
  804040:	1009883a 	mov	r4,r2
  804044:	180b883a 	mov	r5,r3
  804048:	2005883a 	mov	r2,r4
  80404c:	2807883a 	mov	r3,r5
  804050:	dfc00917 	ldw	ra,36(sp)
  804054:	dcc00817 	ldw	r19,32(sp)
  804058:	dc800717 	ldw	r18,28(sp)
  80405c:	dc400617 	ldw	r17,24(sp)
  804060:	dc000517 	ldw	r16,20(sp)
  804064:	dec00a04 	addi	sp,sp,40
  804068:	f800283a 	ret
  80406c:	00800f04 	movi	r2,60
  804070:	1807003a 	cmpeq	r3,r3,zero
  804074:	d8800215 	stw	r2,8(sp)
  804078:	18001126 	beq	r3,zero,8040c0 <__floatsidf+0xbc>
  80407c:	0027883a 	mov	r19,zero
  804080:	2025883a 	mov	r18,r4
  804084:	d9000315 	stw	r4,12(sp)
  804088:	dcc00415 	stw	r19,16(sp)
  80408c:	08044ec0 	call	8044ec <__clzsi2>
  804090:	11000744 	addi	r4,r2,29
  804094:	013fe80e 	bge	zero,r4,804038 <__floatsidf+0x34>
  804098:	10bfff44 	addi	r2,r2,-3
  80409c:	10000c16 	blt	r2,zero,8040d0 <__floatsidf+0xcc>
  8040a0:	90a2983a 	sll	r17,r18,r2
  8040a4:	0021883a 	mov	r16,zero
  8040a8:	d8800217 	ldw	r2,8(sp)
  8040ac:	dc400415 	stw	r17,16(sp)
  8040b0:	dc000315 	stw	r16,12(sp)
  8040b4:	1105c83a 	sub	r2,r2,r4
  8040b8:	d8800215 	stw	r2,8(sp)
  8040bc:	003fde06 	br	804038 <__floatsidf+0x34>
  8040c0:	00a00034 	movhi	r2,32768
  8040c4:	20800a26 	beq	r4,r2,8040f0 <__floatsidf+0xec>
  8040c8:	0109c83a 	sub	r4,zero,r4
  8040cc:	003feb06 	br	80407c <__floatsidf+0x78>
  8040d0:	9006d07a 	srli	r3,r18,1
  8040d4:	008007c4 	movi	r2,31
  8040d8:	1105c83a 	sub	r2,r2,r4
  8040dc:	1886d83a 	srl	r3,r3,r2
  8040e0:	9922983a 	sll	r17,r19,r4
  8040e4:	9120983a 	sll	r16,r18,r4
  8040e8:	1c62b03a 	or	r17,r3,r17
  8040ec:	003fee06 	br	8040a8 <__floatsidf+0xa4>
  8040f0:	0009883a 	mov	r4,zero
  8040f4:	01707834 	movhi	r5,49632
  8040f8:	003fd306 	br	804048 <__floatsidf+0x44>

008040fc <__fixdfsi>:
  8040fc:	defff804 	addi	sp,sp,-32
  804100:	2005883a 	mov	r2,r4
  804104:	2807883a 	mov	r3,r5
  804108:	d809883a 	mov	r4,sp
  80410c:	d9400204 	addi	r5,sp,8
  804110:	d8c00115 	stw	r3,4(sp)
  804114:	d8800015 	stw	r2,0(sp)
  804118:	dfc00715 	stw	ra,28(sp)
  80411c:	08048800 	call	804880 <__unpack_d>
  804120:	d8c00217 	ldw	r3,8(sp)
  804124:	00800084 	movi	r2,2
  804128:	1880051e 	bne	r3,r2,804140 <__fixdfsi+0x44>
  80412c:	0007883a 	mov	r3,zero
  804130:	1805883a 	mov	r2,r3
  804134:	dfc00717 	ldw	ra,28(sp)
  804138:	dec00804 	addi	sp,sp,32
  80413c:	f800283a 	ret
  804140:	00800044 	movi	r2,1
  804144:	10fff92e 	bgeu	r2,r3,80412c <__fixdfsi+0x30>
  804148:	00800104 	movi	r2,4
  80414c:	18800426 	beq	r3,r2,804160 <__fixdfsi+0x64>
  804150:	d8c00417 	ldw	r3,16(sp)
  804154:	183ff516 	blt	r3,zero,80412c <__fixdfsi+0x30>
  804158:	00800784 	movi	r2,30
  80415c:	10c0080e 	bge	r2,r3,804180 <__fixdfsi+0x84>
  804160:	d8800317 	ldw	r2,12(sp)
  804164:	1000121e 	bne	r2,zero,8041b0 <__fixdfsi+0xb4>
  804168:	00e00034 	movhi	r3,32768
  80416c:	18ffffc4 	addi	r3,r3,-1
  804170:	1805883a 	mov	r2,r3
  804174:	dfc00717 	ldw	ra,28(sp)
  804178:	dec00804 	addi	sp,sp,32
  80417c:	f800283a 	ret
  804180:	00800f04 	movi	r2,60
  804184:	10d1c83a 	sub	r8,r2,r3
  804188:	40bff804 	addi	r2,r8,-32
  80418c:	d9800517 	ldw	r6,20(sp)
  804190:	d9c00617 	ldw	r7,24(sp)
  804194:	10000816 	blt	r2,zero,8041b8 <__fixdfsi+0xbc>
  804198:	3888d83a 	srl	r4,r7,r2
  80419c:	d8800317 	ldw	r2,12(sp)
  8041a0:	2007883a 	mov	r3,r4
  8041a4:	103fe226 	beq	r2,zero,804130 <__fixdfsi+0x34>
  8041a8:	0107c83a 	sub	r3,zero,r4
  8041ac:	003fe006 	br	804130 <__fixdfsi+0x34>
  8041b0:	00e00034 	movhi	r3,32768
  8041b4:	003fde06 	br	804130 <__fixdfsi+0x34>
  8041b8:	39c7883a 	add	r3,r7,r7
  8041bc:	008007c4 	movi	r2,31
  8041c0:	1205c83a 	sub	r2,r2,r8
  8041c4:	1886983a 	sll	r3,r3,r2
  8041c8:	3208d83a 	srl	r4,r6,r8
  8041cc:	1908b03a 	or	r4,r3,r4
  8041d0:	003ff206 	br	80419c <__fixdfsi+0xa0>

008041d4 <__floatunsidf>:
  8041d4:	defff204 	addi	sp,sp,-56
  8041d8:	dfc00d15 	stw	ra,52(sp)
  8041dc:	ddc00c15 	stw	r23,48(sp)
  8041e0:	dd800b15 	stw	r22,44(sp)
  8041e4:	dd400a15 	stw	r21,40(sp)
  8041e8:	dd000915 	stw	r20,36(sp)
  8041ec:	dcc00815 	stw	r19,32(sp)
  8041f0:	dc800715 	stw	r18,28(sp)
  8041f4:	dc400615 	stw	r17,24(sp)
  8041f8:	dc000515 	stw	r16,20(sp)
  8041fc:	d8000115 	stw	zero,4(sp)
  804200:	20000f1e 	bne	r4,zero,804240 <__floatunsidf+0x6c>
  804204:	00800084 	movi	r2,2
  804208:	d8800015 	stw	r2,0(sp)
  80420c:	d809883a 	mov	r4,sp
  804210:	080456c0 	call	80456c <__pack_d>
  804214:	dfc00d17 	ldw	ra,52(sp)
  804218:	ddc00c17 	ldw	r23,48(sp)
  80421c:	dd800b17 	ldw	r22,44(sp)
  804220:	dd400a17 	ldw	r21,40(sp)
  804224:	dd000917 	ldw	r20,36(sp)
  804228:	dcc00817 	ldw	r19,32(sp)
  80422c:	dc800717 	ldw	r18,28(sp)
  804230:	dc400617 	ldw	r17,24(sp)
  804234:	dc000517 	ldw	r16,20(sp)
  804238:	dec00e04 	addi	sp,sp,56
  80423c:	f800283a 	ret
  804240:	008000c4 	movi	r2,3
  804244:	00c00f04 	movi	r3,60
  804248:	002f883a 	mov	r23,zero
  80424c:	202d883a 	mov	r22,r4
  804250:	d8800015 	stw	r2,0(sp)
  804254:	d8c00215 	stw	r3,8(sp)
  804258:	d9000315 	stw	r4,12(sp)
  80425c:	ddc00415 	stw	r23,16(sp)
  804260:	08044ec0 	call	8044ec <__clzsi2>
  804264:	12400744 	addi	r9,r2,29
  804268:	48000b16 	blt	r9,zero,804298 <__floatunsidf+0xc4>
  80426c:	483fe726 	beq	r9,zero,80420c <__floatunsidf+0x38>
  804270:	10bfff44 	addi	r2,r2,-3
  804274:	10002e16 	blt	r2,zero,804330 <__floatunsidf+0x15c>
  804278:	b0a2983a 	sll	r17,r22,r2
  80427c:	0021883a 	mov	r16,zero
  804280:	d8800217 	ldw	r2,8(sp)
  804284:	dc400415 	stw	r17,16(sp)
  804288:	dc000315 	stw	r16,12(sp)
  80428c:	1245c83a 	sub	r2,r2,r9
  804290:	d8800215 	stw	r2,8(sp)
  804294:	003fdd06 	br	80420c <__floatunsidf+0x38>
  804298:	0255c83a 	sub	r10,zero,r9
  80429c:	51bff804 	addi	r6,r10,-32
  8042a0:	30001b16 	blt	r6,zero,804310 <__floatunsidf+0x13c>
  8042a4:	b9a8d83a 	srl	r20,r23,r6
  8042a8:	002b883a 	mov	r21,zero
  8042ac:	000f883a 	mov	r7,zero
  8042b0:	01000044 	movi	r4,1
  8042b4:	0011883a 	mov	r8,zero
  8042b8:	30002516 	blt	r6,zero,804350 <__floatunsidf+0x17c>
  8042bc:	21a6983a 	sll	r19,r4,r6
  8042c0:	0025883a 	mov	r18,zero
  8042c4:	00bfffc4 	movi	r2,-1
  8042c8:	9089883a 	add	r4,r18,r2
  8042cc:	988b883a 	add	r5,r19,r2
  8042d0:	248d803a 	cmpltu	r6,r4,r18
  8042d4:	314b883a 	add	r5,r6,r5
  8042d8:	b104703a 	and	r2,r22,r4
  8042dc:	b946703a 	and	r3,r23,r5
  8042e0:	10c4b03a 	or	r2,r2,r3
  8042e4:	10000226 	beq	r2,zero,8042f0 <__floatunsidf+0x11c>
  8042e8:	01c00044 	movi	r7,1
  8042ec:	0011883a 	mov	r8,zero
  8042f0:	d9000217 	ldw	r4,8(sp)
  8042f4:	a1c4b03a 	or	r2,r20,r7
  8042f8:	aa06b03a 	or	r3,r21,r8
  8042fc:	2249c83a 	sub	r4,r4,r9
  804300:	d8c00415 	stw	r3,16(sp)
  804304:	d9000215 	stw	r4,8(sp)
  804308:	d8800315 	stw	r2,12(sp)
  80430c:	003fbf06 	br	80420c <__floatunsidf+0x38>
  804310:	bdc7883a 	add	r3,r23,r23
  804314:	008007c4 	movi	r2,31
  804318:	1285c83a 	sub	r2,r2,r10
  80431c:	1886983a 	sll	r3,r3,r2
  804320:	b2a8d83a 	srl	r20,r22,r10
  804324:	baaad83a 	srl	r21,r23,r10
  804328:	1d28b03a 	or	r20,r3,r20
  80432c:	003fdf06 	br	8042ac <__floatunsidf+0xd8>
  804330:	b006d07a 	srli	r3,r22,1
  804334:	008007c4 	movi	r2,31
  804338:	1245c83a 	sub	r2,r2,r9
  80433c:	1886d83a 	srl	r3,r3,r2
  804340:	ba62983a 	sll	r17,r23,r9
  804344:	b260983a 	sll	r16,r22,r9
  804348:	1c62b03a 	or	r17,r3,r17
  80434c:	003fcc06 	br	804280 <__floatunsidf+0xac>
  804350:	2006d07a 	srli	r3,r4,1
  804354:	008007c4 	movi	r2,31
  804358:	1285c83a 	sub	r2,r2,r10
  80435c:	18a6d83a 	srl	r19,r3,r2
  804360:	22a4983a 	sll	r18,r4,r10
  804364:	003fd706 	br	8042c4 <__floatunsidf+0xf0>

00804368 <udivmodsi4>:
  804368:	29001b2e 	bgeu	r5,r4,8043d8 <udivmodsi4+0x70>
  80436c:	28001a16 	blt	r5,zero,8043d8 <udivmodsi4+0x70>
  804370:	00800044 	movi	r2,1
  804374:	0007883a 	mov	r3,zero
  804378:	01c007c4 	movi	r7,31
  80437c:	00000306 	br	80438c <udivmodsi4+0x24>
  804380:	19c01326 	beq	r3,r7,8043d0 <udivmodsi4+0x68>
  804384:	18c00044 	addi	r3,r3,1
  804388:	28000416 	blt	r5,zero,80439c <udivmodsi4+0x34>
  80438c:	294b883a 	add	r5,r5,r5
  804390:	1085883a 	add	r2,r2,r2
  804394:	293ffa36 	bltu	r5,r4,804380 <udivmodsi4+0x18>
  804398:	10000d26 	beq	r2,zero,8043d0 <udivmodsi4+0x68>
  80439c:	0007883a 	mov	r3,zero
  8043a0:	21400236 	bltu	r4,r5,8043ac <udivmodsi4+0x44>
  8043a4:	2149c83a 	sub	r4,r4,r5
  8043a8:	1886b03a 	or	r3,r3,r2
  8043ac:	1004d07a 	srli	r2,r2,1
  8043b0:	280ad07a 	srli	r5,r5,1
  8043b4:	103ffa1e 	bne	r2,zero,8043a0 <udivmodsi4+0x38>
  8043b8:	30000226 	beq	r6,zero,8043c4 <udivmodsi4+0x5c>
  8043bc:	2005883a 	mov	r2,r4
  8043c0:	f800283a 	ret
  8043c4:	1809883a 	mov	r4,r3
  8043c8:	2005883a 	mov	r2,r4
  8043cc:	f800283a 	ret
  8043d0:	0007883a 	mov	r3,zero
  8043d4:	003ff806 	br	8043b8 <udivmodsi4+0x50>
  8043d8:	00800044 	movi	r2,1
  8043dc:	0007883a 	mov	r3,zero
  8043e0:	003fef06 	br	8043a0 <udivmodsi4+0x38>

008043e4 <__divsi3>:
  8043e4:	defffe04 	addi	sp,sp,-8
  8043e8:	dc000015 	stw	r16,0(sp)
  8043ec:	dfc00115 	stw	ra,4(sp)
  8043f0:	0021883a 	mov	r16,zero
  8043f4:	20000c16 	blt	r4,zero,804428 <__divsi3+0x44>
  8043f8:	000d883a 	mov	r6,zero
  8043fc:	28000e16 	blt	r5,zero,804438 <__divsi3+0x54>
  804400:	08043680 	call	804368 <udivmodsi4>
  804404:	1007883a 	mov	r3,r2
  804408:	8005003a 	cmpeq	r2,r16,zero
  80440c:	1000011e 	bne	r2,zero,804414 <__divsi3+0x30>
  804410:	00c7c83a 	sub	r3,zero,r3
  804414:	1805883a 	mov	r2,r3
  804418:	dfc00117 	ldw	ra,4(sp)
  80441c:	dc000017 	ldw	r16,0(sp)
  804420:	dec00204 	addi	sp,sp,8
  804424:	f800283a 	ret
  804428:	0109c83a 	sub	r4,zero,r4
  80442c:	04000044 	movi	r16,1
  804430:	000d883a 	mov	r6,zero
  804434:	283ff20e 	bge	r5,zero,804400 <__divsi3+0x1c>
  804438:	014bc83a 	sub	r5,zero,r5
  80443c:	8021003a 	cmpeq	r16,r16,zero
  804440:	003fef06 	br	804400 <__divsi3+0x1c>

00804444 <__modsi3>:
  804444:	deffff04 	addi	sp,sp,-4
  804448:	dfc00015 	stw	ra,0(sp)
  80444c:	01800044 	movi	r6,1
  804450:	2807883a 	mov	r3,r5
  804454:	20000416 	blt	r4,zero,804468 <__modsi3+0x24>
  804458:	28000c16 	blt	r5,zero,80448c <__modsi3+0x48>
  80445c:	dfc00017 	ldw	ra,0(sp)
  804460:	dec00104 	addi	sp,sp,4
  804464:	08043681 	jmpi	804368 <udivmodsi4>
  804468:	0109c83a 	sub	r4,zero,r4
  80446c:	28000b16 	blt	r5,zero,80449c <__modsi3+0x58>
  804470:	180b883a 	mov	r5,r3
  804474:	01800044 	movi	r6,1
  804478:	08043680 	call	804368 <udivmodsi4>
  80447c:	0085c83a 	sub	r2,zero,r2
  804480:	dfc00017 	ldw	ra,0(sp)
  804484:	dec00104 	addi	sp,sp,4
  804488:	f800283a 	ret
  80448c:	014bc83a 	sub	r5,zero,r5
  804490:	dfc00017 	ldw	ra,0(sp)
  804494:	dec00104 	addi	sp,sp,4
  804498:	08043681 	jmpi	804368 <udivmodsi4>
  80449c:	0147c83a 	sub	r3,zero,r5
  8044a0:	003ff306 	br	804470 <__modsi3+0x2c>

008044a4 <__udivsi3>:
  8044a4:	000d883a 	mov	r6,zero
  8044a8:	08043681 	jmpi	804368 <udivmodsi4>

008044ac <__umodsi3>:
  8044ac:	01800044 	movi	r6,1
  8044b0:	08043681 	jmpi	804368 <udivmodsi4>

008044b4 <__mulsi3>:
  8044b4:	20000a26 	beq	r4,zero,8044e0 <__mulsi3+0x2c>
  8044b8:	0007883a 	mov	r3,zero
  8044bc:	2080004c 	andi	r2,r4,1
  8044c0:	1005003a 	cmpeq	r2,r2,zero
  8044c4:	2008d07a 	srli	r4,r4,1
  8044c8:	1000011e 	bne	r2,zero,8044d0 <__mulsi3+0x1c>
  8044cc:	1947883a 	add	r3,r3,r5
  8044d0:	294b883a 	add	r5,r5,r5
  8044d4:	203ff91e 	bne	r4,zero,8044bc <__mulsi3+0x8>
  8044d8:	1805883a 	mov	r2,r3
  8044dc:	f800283a 	ret
  8044e0:	0007883a 	mov	r3,zero
  8044e4:	1805883a 	mov	r2,r3
  8044e8:	f800283a 	ret

008044ec <__clzsi2>:
  8044ec:	00bfffd4 	movui	r2,65535
  8044f0:	11000e36 	bltu	r2,r4,80452c <__clzsi2+0x40>
  8044f4:	00803fc4 	movi	r2,255
  8044f8:	01400204 	movi	r5,8
  8044fc:	0007883a 	mov	r3,zero
  804500:	11001036 	bltu	r2,r4,804544 <__clzsi2+0x58>
  804504:	000b883a 	mov	r5,zero
  804508:	20c6d83a 	srl	r3,r4,r3
  80450c:	00802074 	movhi	r2,129
  804510:	10801304 	addi	r2,r2,76
  804514:	1887883a 	add	r3,r3,r2
  804518:	18800003 	ldbu	r2,0(r3)
  80451c:	00c00804 	movi	r3,32
  804520:	2885883a 	add	r2,r5,r2
  804524:	1885c83a 	sub	r2,r3,r2
  804528:	f800283a 	ret
  80452c:	01400404 	movi	r5,16
  804530:	00804034 	movhi	r2,256
  804534:	10bfffc4 	addi	r2,r2,-1
  804538:	2807883a 	mov	r3,r5
  80453c:	113ff22e 	bgeu	r2,r4,804508 <__clzsi2+0x1c>
  804540:	01400604 	movi	r5,24
  804544:	2807883a 	mov	r3,r5
  804548:	20c6d83a 	srl	r3,r4,r3
  80454c:	00802074 	movhi	r2,129
  804550:	10801304 	addi	r2,r2,76
  804554:	1887883a 	add	r3,r3,r2
  804558:	18800003 	ldbu	r2,0(r3)
  80455c:	00c00804 	movi	r3,32
  804560:	2885883a 	add	r2,r5,r2
  804564:	1885c83a 	sub	r2,r3,r2
  804568:	f800283a 	ret

0080456c <__pack_d>:
  80456c:	20c00017 	ldw	r3,0(r4)
  804570:	defffd04 	addi	sp,sp,-12
  804574:	dc000015 	stw	r16,0(sp)
  804578:	dc800215 	stw	r18,8(sp)
  80457c:	dc400115 	stw	r17,4(sp)
  804580:	00800044 	movi	r2,1
  804584:	22000317 	ldw	r8,12(r4)
  804588:	001f883a 	mov	r15,zero
  80458c:	22400417 	ldw	r9,16(r4)
  804590:	24000117 	ldw	r16,4(r4)
  804594:	10c0552e 	bgeu	r2,r3,8046ec <__pack_d+0x180>
  804598:	00800104 	movi	r2,4
  80459c:	18804f26 	beq	r3,r2,8046dc <__pack_d+0x170>
  8045a0:	00800084 	movi	r2,2
  8045a4:	18800226 	beq	r3,r2,8045b0 <__pack_d+0x44>
  8045a8:	4244b03a 	or	r2,r8,r9
  8045ac:	10001a1e 	bne	r2,zero,804618 <__pack_d+0xac>
  8045b0:	000d883a 	mov	r6,zero
  8045b4:	000f883a 	mov	r7,zero
  8045b8:	0011883a 	mov	r8,zero
  8045bc:	00800434 	movhi	r2,16
  8045c0:	10bfffc4 	addi	r2,r2,-1
  8045c4:	301d883a 	mov	r14,r6
  8045c8:	3884703a 	and	r2,r7,r2
  8045cc:	400a953a 	slli	r5,r8,20
  8045d0:	79bffc2c 	andhi	r6,r15,65520
  8045d4:	308cb03a 	or	r6,r6,r2
  8045d8:	00e00434 	movhi	r3,32784
  8045dc:	18ffffc4 	addi	r3,r3,-1
  8045e0:	800497fa 	slli	r2,r16,31
  8045e4:	30c6703a 	and	r3,r6,r3
  8045e8:	1946b03a 	or	r3,r3,r5
  8045ec:	01600034 	movhi	r5,32768
  8045f0:	297fffc4 	addi	r5,r5,-1
  8045f4:	194a703a 	and	r5,r3,r5
  8045f8:	288ab03a 	or	r5,r5,r2
  8045fc:	2807883a 	mov	r3,r5
  804600:	7005883a 	mov	r2,r14
  804604:	dc800217 	ldw	r18,8(sp)
  804608:	dc400117 	ldw	r17,4(sp)
  80460c:	dc000017 	ldw	r16,0(sp)
  804610:	dec00304 	addi	sp,sp,12
  804614:	f800283a 	ret
  804618:	21000217 	ldw	r4,8(r4)
  80461c:	00bf0084 	movi	r2,-1022
  804620:	20803f16 	blt	r4,r2,804720 <__pack_d+0x1b4>
  804624:	0080ffc4 	movi	r2,1023
  804628:	11002c16 	blt	r2,r4,8046dc <__pack_d+0x170>
  80462c:	00803fc4 	movi	r2,255
  804630:	408c703a 	and	r6,r8,r2
  804634:	00802004 	movi	r2,128
  804638:	0007883a 	mov	r3,zero
  80463c:	000f883a 	mov	r7,zero
  804640:	2280ffc4 	addi	r10,r4,1023
  804644:	30801e26 	beq	r6,r2,8046c0 <__pack_d+0x154>
  804648:	00801fc4 	movi	r2,127
  80464c:	4089883a 	add	r4,r8,r2
  804650:	220d803a 	cmpltu	r6,r4,r8
  804654:	324d883a 	add	r6,r6,r9
  804658:	2011883a 	mov	r8,r4
  80465c:	3013883a 	mov	r9,r6
  804660:	00880034 	movhi	r2,8192
  804664:	10bfffc4 	addi	r2,r2,-1
  804668:	12400d36 	bltu	r2,r9,8046a0 <__pack_d+0x134>
  80466c:	4804963a 	slli	r2,r9,24
  804670:	400cd23a 	srli	r6,r8,8
  804674:	480ed23a 	srli	r7,r9,8
  804678:	013fffc4 	movi	r4,-1
  80467c:	118cb03a 	or	r6,r2,r6
  804680:	01400434 	movhi	r5,16
  804684:	297fffc4 	addi	r5,r5,-1
  804688:	3104703a 	and	r2,r6,r4
  80468c:	3946703a 	and	r3,r7,r5
  804690:	5201ffcc 	andi	r8,r10,2047
  804694:	100d883a 	mov	r6,r2
  804698:	180f883a 	mov	r7,r3
  80469c:	003fc706 	br	8045bc <__pack_d+0x50>
  8046a0:	480897fa 	slli	r4,r9,31
  8046a4:	4004d07a 	srli	r2,r8,1
  8046a8:	4806d07a 	srli	r3,r9,1
  8046ac:	52800044 	addi	r10,r10,1
  8046b0:	2084b03a 	or	r2,r4,r2
  8046b4:	1011883a 	mov	r8,r2
  8046b8:	1813883a 	mov	r9,r3
  8046bc:	003feb06 	br	80466c <__pack_d+0x100>
  8046c0:	383fe11e 	bne	r7,zero,804648 <__pack_d+0xdc>
  8046c4:	01004004 	movi	r4,256
  8046c8:	4104703a 	and	r2,r8,r4
  8046cc:	10c4b03a 	or	r2,r2,r3
  8046d0:	103fe326 	beq	r2,zero,804660 <__pack_d+0xf4>
  8046d4:	3005883a 	mov	r2,r6
  8046d8:	003fdc06 	br	80464c <__pack_d+0xe0>
  8046dc:	000d883a 	mov	r6,zero
  8046e0:	000f883a 	mov	r7,zero
  8046e4:	0201ffc4 	movi	r8,2047
  8046e8:	003fb406 	br	8045bc <__pack_d+0x50>
  8046ec:	0005883a 	mov	r2,zero
  8046f0:	00c00234 	movhi	r3,8
  8046f4:	408cb03a 	or	r6,r8,r2
  8046f8:	48ceb03a 	or	r7,r9,r3
  8046fc:	013fffc4 	movi	r4,-1
  804700:	01400434 	movhi	r5,16
  804704:	297fffc4 	addi	r5,r5,-1
  804708:	3104703a 	and	r2,r6,r4
  80470c:	3946703a 	and	r3,r7,r5
  804710:	100d883a 	mov	r6,r2
  804714:	180f883a 	mov	r7,r3
  804718:	0201ffc4 	movi	r8,2047
  80471c:	003fa706 	br	8045bc <__pack_d+0x50>
  804720:	1109c83a 	sub	r4,r2,r4
  804724:	00800e04 	movi	r2,56
  804728:	11004316 	blt	r2,r4,804838 <__pack_d+0x2cc>
  80472c:	21fff804 	addi	r7,r4,-32
  804730:	38004516 	blt	r7,zero,804848 <__pack_d+0x2dc>
  804734:	49d8d83a 	srl	r12,r9,r7
  804738:	001b883a 	mov	r13,zero
  80473c:	0023883a 	mov	r17,zero
  804740:	01400044 	movi	r5,1
  804744:	0025883a 	mov	r18,zero
  804748:	38004716 	blt	r7,zero,804868 <__pack_d+0x2fc>
  80474c:	29d6983a 	sll	r11,r5,r7
  804750:	0015883a 	mov	r10,zero
  804754:	00bfffc4 	movi	r2,-1
  804758:	5089883a 	add	r4,r10,r2
  80475c:	588b883a 	add	r5,r11,r2
  804760:	228d803a 	cmpltu	r6,r4,r10
  804764:	314b883a 	add	r5,r6,r5
  804768:	4104703a 	and	r2,r8,r4
  80476c:	4946703a 	and	r3,r9,r5
  804770:	10c4b03a 	or	r2,r2,r3
  804774:	10000226 	beq	r2,zero,804780 <__pack_d+0x214>
  804778:	04400044 	movi	r17,1
  80477c:	0025883a 	mov	r18,zero
  804780:	00803fc4 	movi	r2,255
  804784:	644eb03a 	or	r7,r12,r17
  804788:	3892703a 	and	r9,r7,r2
  80478c:	00802004 	movi	r2,128
  804790:	6c90b03a 	or	r8,r13,r18
  804794:	0015883a 	mov	r10,zero
  804798:	48801626 	beq	r9,r2,8047f4 <__pack_d+0x288>
  80479c:	01001fc4 	movi	r4,127
  8047a0:	3905883a 	add	r2,r7,r4
  8047a4:	11cd803a 	cmpltu	r6,r2,r7
  8047a8:	320d883a 	add	r6,r6,r8
  8047ac:	100f883a 	mov	r7,r2
  8047b0:	00840034 	movhi	r2,4096
  8047b4:	10bfffc4 	addi	r2,r2,-1
  8047b8:	3011883a 	mov	r8,r6
  8047bc:	0007883a 	mov	r3,zero
  8047c0:	11801b36 	bltu	r2,r6,804830 <__pack_d+0x2c4>
  8047c4:	4004963a 	slli	r2,r8,24
  8047c8:	3808d23a 	srli	r4,r7,8
  8047cc:	400ad23a 	srli	r5,r8,8
  8047d0:	1813883a 	mov	r9,r3
  8047d4:	1108b03a 	or	r4,r2,r4
  8047d8:	00bfffc4 	movi	r2,-1
  8047dc:	00c00434 	movhi	r3,16
  8047e0:	18ffffc4 	addi	r3,r3,-1
  8047e4:	208c703a 	and	r6,r4,r2
  8047e8:	28ce703a 	and	r7,r5,r3
  8047ec:	4a01ffcc 	andi	r8,r9,2047
  8047f0:	003f7206 	br	8045bc <__pack_d+0x50>
  8047f4:	503fe91e 	bne	r10,zero,80479c <__pack_d+0x230>
  8047f8:	01004004 	movi	r4,256
  8047fc:	3904703a 	and	r2,r7,r4
  804800:	0007883a 	mov	r3,zero
  804804:	10c4b03a 	or	r2,r2,r3
  804808:	10000626 	beq	r2,zero,804824 <__pack_d+0x2b8>
  80480c:	3a45883a 	add	r2,r7,r9
  804810:	11cd803a 	cmpltu	r6,r2,r7
  804814:	320d883a 	add	r6,r6,r8
  804818:	100f883a 	mov	r7,r2
  80481c:	3011883a 	mov	r8,r6
  804820:	0007883a 	mov	r3,zero
  804824:	00840034 	movhi	r2,4096
  804828:	10bfffc4 	addi	r2,r2,-1
  80482c:	123fe52e 	bgeu	r2,r8,8047c4 <__pack_d+0x258>
  804830:	00c00044 	movi	r3,1
  804834:	003fe306 	br	8047c4 <__pack_d+0x258>
  804838:	0009883a 	mov	r4,zero
  80483c:	0013883a 	mov	r9,zero
  804840:	000b883a 	mov	r5,zero
  804844:	003fe406 	br	8047d8 <__pack_d+0x26c>
  804848:	4a47883a 	add	r3,r9,r9
  80484c:	008007c4 	movi	r2,31
  804850:	1105c83a 	sub	r2,r2,r4
  804854:	1886983a 	sll	r3,r3,r2
  804858:	4118d83a 	srl	r12,r8,r4
  80485c:	491ad83a 	srl	r13,r9,r4
  804860:	1b18b03a 	or	r12,r3,r12
  804864:	003fb506 	br	80473c <__pack_d+0x1d0>
  804868:	2806d07a 	srli	r3,r5,1
  80486c:	008007c4 	movi	r2,31
  804870:	1105c83a 	sub	r2,r2,r4
  804874:	1896d83a 	srl	r11,r3,r2
  804878:	2914983a 	sll	r10,r5,r4
  80487c:	003fb506 	br	804754 <__pack_d+0x1e8>

00804880 <__unpack_d>:
  804880:	20c00117 	ldw	r3,4(r4)
  804884:	22400017 	ldw	r9,0(r4)
  804888:	00800434 	movhi	r2,16
  80488c:	10bfffc4 	addi	r2,r2,-1
  804890:	1808d53a 	srli	r4,r3,20
  804894:	180cd7fa 	srli	r6,r3,31
  804898:	1894703a 	and	r10,r3,r2
  80489c:	2201ffcc 	andi	r8,r4,2047
  8048a0:	281b883a 	mov	r13,r5
  8048a4:	4817883a 	mov	r11,r9
  8048a8:	29800115 	stw	r6,4(r5)
  8048ac:	5019883a 	mov	r12,r10
  8048b0:	40001e1e 	bne	r8,zero,80492c <__unpack_d+0xac>
  8048b4:	4a84b03a 	or	r2,r9,r10
  8048b8:	10001926 	beq	r2,zero,804920 <__unpack_d+0xa0>
  8048bc:	4804d63a 	srli	r2,r9,24
  8048c0:	500c923a 	slli	r6,r10,8
  8048c4:	013f0084 	movi	r4,-1022
  8048c8:	00c40034 	movhi	r3,4096
  8048cc:	18ffffc4 	addi	r3,r3,-1
  8048d0:	118cb03a 	or	r6,r2,r6
  8048d4:	008000c4 	movi	r2,3
  8048d8:	480a923a 	slli	r5,r9,8
  8048dc:	68800015 	stw	r2,0(r13)
  8048e0:	69000215 	stw	r4,8(r13)
  8048e4:	19800b36 	bltu	r3,r6,804914 <__unpack_d+0x94>
  8048e8:	200f883a 	mov	r7,r4
  8048ec:	1811883a 	mov	r8,r3
  8048f0:	2945883a 	add	r2,r5,r5
  8048f4:	1149803a 	cmpltu	r4,r2,r5
  8048f8:	3187883a 	add	r3,r6,r6
  8048fc:	20c9883a 	add	r4,r4,r3
  804900:	100b883a 	mov	r5,r2
  804904:	200d883a 	mov	r6,r4
  804908:	39ffffc4 	addi	r7,r7,-1
  80490c:	413ff82e 	bgeu	r8,r4,8048f0 <__unpack_d+0x70>
  804910:	69c00215 	stw	r7,8(r13)
  804914:	69800415 	stw	r6,16(r13)
  804918:	69400315 	stw	r5,12(r13)
  80491c:	f800283a 	ret
  804920:	00800084 	movi	r2,2
  804924:	28800015 	stw	r2,0(r5)
  804928:	f800283a 	ret
  80492c:	0081ffc4 	movi	r2,2047
  804930:	40800f26 	beq	r8,r2,804970 <__unpack_d+0xf0>
  804934:	480cd63a 	srli	r6,r9,24
  804938:	5006923a 	slli	r3,r10,8
  80493c:	4804923a 	slli	r2,r9,8
  804940:	0009883a 	mov	r4,zero
  804944:	30c6b03a 	or	r3,r6,r3
  804948:	01440034 	movhi	r5,4096
  80494c:	110cb03a 	or	r6,r2,r4
  804950:	423f0044 	addi	r8,r8,-1023
  804954:	194eb03a 	or	r7,r3,r5
  804958:	008000c4 	movi	r2,3
  80495c:	69c00415 	stw	r7,16(r13)
  804960:	6a000215 	stw	r8,8(r13)
  804964:	68800015 	stw	r2,0(r13)
  804968:	69800315 	stw	r6,12(r13)
  80496c:	f800283a 	ret
  804970:	4a84b03a 	or	r2,r9,r10
  804974:	1000031e 	bne	r2,zero,804984 <__unpack_d+0x104>
  804978:	00800104 	movi	r2,4
  80497c:	28800015 	stw	r2,0(r5)
  804980:	f800283a 	ret
  804984:	0009883a 	mov	r4,zero
  804988:	01400234 	movhi	r5,8
  80498c:	4904703a 	and	r2,r9,r4
  804990:	5146703a 	and	r3,r10,r5
  804994:	10c4b03a 	or	r2,r2,r3
  804998:	10000526 	beq	r2,zero,8049b0 <__unpack_d+0x130>
  80499c:	00800044 	movi	r2,1
  8049a0:	68800015 	stw	r2,0(r13)
  8049a4:	6b000415 	stw	r12,16(r13)
  8049a8:	6ac00315 	stw	r11,12(r13)
  8049ac:	f800283a 	ret
  8049b0:	68000015 	stw	zero,0(r13)
  8049b4:	003ffb06 	br	8049a4 <__unpack_d+0x124>

008049b8 <__fpcmp_parts_d>:
  8049b8:	21800017 	ldw	r6,0(r4)
  8049bc:	00c00044 	movi	r3,1
  8049c0:	19800a2e 	bgeu	r3,r6,8049ec <__fpcmp_parts_d+0x34>
  8049c4:	28800017 	ldw	r2,0(r5)
  8049c8:	1880082e 	bgeu	r3,r2,8049ec <__fpcmp_parts_d+0x34>
  8049cc:	00c00104 	movi	r3,4
  8049d0:	30c02626 	beq	r6,r3,804a6c <__fpcmp_parts_d+0xb4>
  8049d4:	10c02226 	beq	r2,r3,804a60 <__fpcmp_parts_d+0xa8>
  8049d8:	00c00084 	movi	r3,2
  8049dc:	30c00526 	beq	r6,r3,8049f4 <__fpcmp_parts_d+0x3c>
  8049e0:	10c0071e 	bne	r2,r3,804a00 <__fpcmp_parts_d+0x48>
  8049e4:	20800117 	ldw	r2,4(r4)
  8049e8:	1000091e 	bne	r2,zero,804a10 <__fpcmp_parts_d+0x58>
  8049ec:	00800044 	movi	r2,1
  8049f0:	f800283a 	ret
  8049f4:	10c01a1e 	bne	r2,r3,804a60 <__fpcmp_parts_d+0xa8>
  8049f8:	0005883a 	mov	r2,zero
  8049fc:	f800283a 	ret
  804a00:	22000117 	ldw	r8,4(r4)
  804a04:	28800117 	ldw	r2,4(r5)
  804a08:	40800326 	beq	r8,r2,804a18 <__fpcmp_parts_d+0x60>
  804a0c:	403ff726 	beq	r8,zero,8049ec <__fpcmp_parts_d+0x34>
  804a10:	00bfffc4 	movi	r2,-1
  804a14:	f800283a 	ret
  804a18:	20c00217 	ldw	r3,8(r4)
  804a1c:	28800217 	ldw	r2,8(r5)
  804a20:	10fffa16 	blt	r2,r3,804a0c <__fpcmp_parts_d+0x54>
  804a24:	18800916 	blt	r3,r2,804a4c <__fpcmp_parts_d+0x94>
  804a28:	21c00417 	ldw	r7,16(r4)
  804a2c:	28c00417 	ldw	r3,16(r5)
  804a30:	21800317 	ldw	r6,12(r4)
  804a34:	28800317 	ldw	r2,12(r5)
  804a38:	19fff436 	bltu	r3,r7,804a0c <__fpcmp_parts_d+0x54>
  804a3c:	38c00526 	beq	r7,r3,804a54 <__fpcmp_parts_d+0x9c>
  804a40:	38c00236 	bltu	r7,r3,804a4c <__fpcmp_parts_d+0x94>
  804a44:	19ffec1e 	bne	r3,r7,8049f8 <__fpcmp_parts_d+0x40>
  804a48:	30bfeb2e 	bgeu	r6,r2,8049f8 <__fpcmp_parts_d+0x40>
  804a4c:	403fe71e 	bne	r8,zero,8049ec <__fpcmp_parts_d+0x34>
  804a50:	003fef06 	br	804a10 <__fpcmp_parts_d+0x58>
  804a54:	11bffa2e 	bgeu	r2,r6,804a40 <__fpcmp_parts_d+0x88>
  804a58:	403fe426 	beq	r8,zero,8049ec <__fpcmp_parts_d+0x34>
  804a5c:	003fec06 	br	804a10 <__fpcmp_parts_d+0x58>
  804a60:	28800117 	ldw	r2,4(r5)
  804a64:	103fe11e 	bne	r2,zero,8049ec <__fpcmp_parts_d+0x34>
  804a68:	003fe906 	br	804a10 <__fpcmp_parts_d+0x58>
  804a6c:	11bfdd1e 	bne	r2,r6,8049e4 <__fpcmp_parts_d+0x2c>
  804a70:	28c00117 	ldw	r3,4(r5)
  804a74:	20800117 	ldw	r2,4(r4)
  804a78:	1885c83a 	sub	r2,r3,r2
  804a7c:	f800283a 	ret

00804a80 <memset>:
  804a80:	008000c4 	movi	r2,3
  804a84:	29403fcc 	andi	r5,r5,255
  804a88:	2007883a 	mov	r3,r4
  804a8c:	1180022e 	bgeu	r2,r6,804a98 <memset+0x18>
  804a90:	2084703a 	and	r2,r4,r2
  804a94:	10000826 	beq	r2,zero,804ab8 <memset+0x38>
  804a98:	30000526 	beq	r6,zero,804ab0 <memset+0x30>
  804a9c:	2805883a 	mov	r2,r5
  804aa0:	30cd883a 	add	r6,r6,r3
  804aa4:	18800005 	stb	r2,0(r3)
  804aa8:	18c00044 	addi	r3,r3,1
  804aac:	19bffd1e 	bne	r3,r6,804aa4 <memset+0x24>
  804ab0:	2005883a 	mov	r2,r4
  804ab4:	f800283a 	ret
  804ab8:	2804923a 	slli	r2,r5,8
  804abc:	020003c4 	movi	r8,15
  804ac0:	200f883a 	mov	r7,r4
  804ac4:	2884b03a 	or	r2,r5,r2
  804ac8:	1006943a 	slli	r3,r2,16
  804acc:	10c6b03a 	or	r3,r2,r3
  804ad0:	41800a2e 	bgeu	r8,r6,804afc <memset+0x7c>
  804ad4:	4005883a 	mov	r2,r8
  804ad8:	31bffc04 	addi	r6,r6,-16
  804adc:	38c00015 	stw	r3,0(r7)
  804ae0:	38c00115 	stw	r3,4(r7)
  804ae4:	38c00215 	stw	r3,8(r7)
  804ae8:	38c00315 	stw	r3,12(r7)
  804aec:	39c00404 	addi	r7,r7,16
  804af0:	11bff936 	bltu	r2,r6,804ad8 <memset+0x58>
  804af4:	008000c4 	movi	r2,3
  804af8:	1180052e 	bgeu	r2,r6,804b10 <memset+0x90>
  804afc:	31bfff04 	addi	r6,r6,-4
  804b00:	008000c4 	movi	r2,3
  804b04:	38c00015 	stw	r3,0(r7)
  804b08:	39c00104 	addi	r7,r7,4
  804b0c:	11bffb36 	bltu	r2,r6,804afc <memset+0x7c>
  804b10:	3807883a 	mov	r3,r7
  804b14:	003fe006 	br	804a98 <memset+0x18>

00804b18 <printf>:
  804b18:	defffb04 	addi	sp,sp,-20
  804b1c:	dfc00115 	stw	ra,4(sp)
  804b20:	d9400215 	stw	r5,8(sp)
  804b24:	d9800315 	stw	r6,12(sp)
  804b28:	d9c00415 	stw	r7,16(sp)
  804b2c:	00802074 	movhi	r2,129
  804b30:	10889b04 	addi	r2,r2,8812
  804b34:	10c00017 	ldw	r3,0(r2)
  804b38:	200b883a 	mov	r5,r4
  804b3c:	d8800204 	addi	r2,sp,8
  804b40:	19000217 	ldw	r4,8(r3)
  804b44:	100d883a 	mov	r6,r2
  804b48:	d8800015 	stw	r2,0(sp)
  804b4c:	0806d1c0 	call	806d1c <__vfprintf_internal>
  804b50:	dfc00117 	ldw	ra,4(sp)
  804b54:	dec00504 	addi	sp,sp,20
  804b58:	f800283a 	ret

00804b5c <_printf_r>:
  804b5c:	defffc04 	addi	sp,sp,-16
  804b60:	dfc00115 	stw	ra,4(sp)
  804b64:	d9800215 	stw	r6,8(sp)
  804b68:	d9c00315 	stw	r7,12(sp)
  804b6c:	280d883a 	mov	r6,r5
  804b70:	21400217 	ldw	r5,8(r4)
  804b74:	d8c00204 	addi	r3,sp,8
  804b78:	180f883a 	mov	r7,r3
  804b7c:	d8c00015 	stw	r3,0(sp)
  804b80:	0804e580 	call	804e58 <___vfprintf_internal_r>
  804b84:	dfc00117 	ldw	ra,4(sp)
  804b88:	dec00404 	addi	sp,sp,16
  804b8c:	f800283a 	ret

00804b90 <_puts_r>:
  804b90:	defff604 	addi	sp,sp,-40
  804b94:	dc400715 	stw	r17,28(sp)
  804b98:	2023883a 	mov	r17,r4
  804b9c:	2809883a 	mov	r4,r5
  804ba0:	dfc00915 	stw	ra,36(sp)
  804ba4:	dcc00815 	stw	r19,32(sp)
  804ba8:	2827883a 	mov	r19,r5
  804bac:	0804d8c0 	call	804d8c <strlen>
  804bb0:	89400217 	ldw	r5,8(r17)
  804bb4:	00c02074 	movhi	r3,129
  804bb8:	18c05304 	addi	r3,r3,332
  804bbc:	01c00044 	movi	r7,1
  804bc0:	12000044 	addi	r8,r2,1
  804bc4:	d8c00515 	stw	r3,20(sp)
  804bc8:	d9c00615 	stw	r7,24(sp)
  804bcc:	d8c00304 	addi	r3,sp,12
  804bd0:	01c00084 	movi	r7,2
  804bd4:	8809883a 	mov	r4,r17
  804bd8:	d80d883a 	mov	r6,sp
  804bdc:	d8c00015 	stw	r3,0(sp)
  804be0:	dcc00315 	stw	r19,12(sp)
  804be4:	da000215 	stw	r8,8(sp)
  804be8:	d9c00115 	stw	r7,4(sp)
  804bec:	d8800415 	stw	r2,16(sp)
  804bf0:	0808fd80 	call	808fd8 <__sfvwrite_r>
  804bf4:	00ffffc4 	movi	r3,-1
  804bf8:	10000626 	beq	r2,zero,804c14 <_puts_r+0x84>
  804bfc:	1805883a 	mov	r2,r3
  804c00:	dfc00917 	ldw	ra,36(sp)
  804c04:	dcc00817 	ldw	r19,32(sp)
  804c08:	dc400717 	ldw	r17,28(sp)
  804c0c:	dec00a04 	addi	sp,sp,40
  804c10:	f800283a 	ret
  804c14:	00c00284 	movi	r3,10
  804c18:	1805883a 	mov	r2,r3
  804c1c:	dfc00917 	ldw	ra,36(sp)
  804c20:	dcc00817 	ldw	r19,32(sp)
  804c24:	dc400717 	ldw	r17,28(sp)
  804c28:	dec00a04 	addi	sp,sp,40
  804c2c:	f800283a 	ret

00804c30 <puts>:
  804c30:	00802074 	movhi	r2,129
  804c34:	10889b04 	addi	r2,r2,8812
  804c38:	200b883a 	mov	r5,r4
  804c3c:	11000017 	ldw	r4,0(r2)
  804c40:	0804b901 	jmpi	804b90 <_puts_r>

00804c44 <strcmp>:
  804c44:	2144b03a 	or	r2,r4,r5
  804c48:	108000cc 	andi	r2,r2,3
  804c4c:	10001d1e 	bne	r2,zero,804cc4 <strcmp+0x80>
  804c50:	200f883a 	mov	r7,r4
  804c54:	28800017 	ldw	r2,0(r5)
  804c58:	21000017 	ldw	r4,0(r4)
  804c5c:	280d883a 	mov	r6,r5
  804c60:	2080161e 	bne	r4,r2,804cbc <strcmp+0x78>
  804c64:	023fbff4 	movhi	r8,65279
  804c68:	423fbfc4 	addi	r8,r8,-257
  804c6c:	2207883a 	add	r3,r4,r8
  804c70:	01602074 	movhi	r5,32897
  804c74:	29602004 	addi	r5,r5,-32640
  804c78:	1946703a 	and	r3,r3,r5
  804c7c:	0104303a 	nor	r2,zero,r4
  804c80:	10c4703a 	and	r2,r2,r3
  804c84:	10001c1e 	bne	r2,zero,804cf8 <strcmp+0xb4>
  804c88:	4013883a 	mov	r9,r8
  804c8c:	2811883a 	mov	r8,r5
  804c90:	00000106 	br	804c98 <strcmp+0x54>
  804c94:	1800181e 	bne	r3,zero,804cf8 <strcmp+0xb4>
  804c98:	39c00104 	addi	r7,r7,4
  804c9c:	39000017 	ldw	r4,0(r7)
  804ca0:	31800104 	addi	r6,r6,4
  804ca4:	31400017 	ldw	r5,0(r6)
  804ca8:	2245883a 	add	r2,r4,r9
  804cac:	1204703a 	and	r2,r2,r8
  804cb0:	0106303a 	nor	r3,zero,r4
  804cb4:	1886703a 	and	r3,r3,r2
  804cb8:	217ff626 	beq	r4,r5,804c94 <strcmp+0x50>
  804cbc:	3809883a 	mov	r4,r7
  804cc0:	300b883a 	mov	r5,r6
  804cc4:	20c00007 	ldb	r3,0(r4)
  804cc8:	1800051e 	bne	r3,zero,804ce0 <strcmp+0x9c>
  804ccc:	00000606 	br	804ce8 <strcmp+0xa4>
  804cd0:	21000044 	addi	r4,r4,1
  804cd4:	20c00007 	ldb	r3,0(r4)
  804cd8:	29400044 	addi	r5,r5,1
  804cdc:	18000226 	beq	r3,zero,804ce8 <strcmp+0xa4>
  804ce0:	28800007 	ldb	r2,0(r5)
  804ce4:	18bffa26 	beq	r3,r2,804cd0 <strcmp+0x8c>
  804ce8:	20c00003 	ldbu	r3,0(r4)
  804cec:	28800003 	ldbu	r2,0(r5)
  804cf0:	1885c83a 	sub	r2,r3,r2
  804cf4:	f800283a 	ret
  804cf8:	0005883a 	mov	r2,zero
  804cfc:	f800283a 	ret

00804d00 <strcpy>:
  804d00:	2904b03a 	or	r2,r5,r4
  804d04:	108000cc 	andi	r2,r2,3
  804d08:	10000826 	beq	r2,zero,804d2c <strcpy+0x2c>
  804d0c:	2007883a 	mov	r3,r4
  804d10:	28800003 	ldbu	r2,0(r5)
  804d14:	29400044 	addi	r5,r5,1
  804d18:	18800005 	stb	r2,0(r3)
  804d1c:	18c00044 	addi	r3,r3,1
  804d20:	103ffb1e 	bne	r2,zero,804d10 <strcpy+0x10>
  804d24:	2005883a 	mov	r2,r4
  804d28:	f800283a 	ret
  804d2c:	29800017 	ldw	r6,0(r5)
  804d30:	023fbff4 	movhi	r8,65279
  804d34:	423fbfc4 	addi	r8,r8,-257
  804d38:	02a02074 	movhi	r10,32897
  804d3c:	52a02004 	addi	r10,r10,-32640
  804d40:	3205883a 	add	r2,r6,r8
  804d44:	0186303a 	nor	r3,zero,r6
  804d48:	10c4703a 	and	r2,r2,r3
  804d4c:	1284703a 	and	r2,r2,r10
  804d50:	200f883a 	mov	r7,r4
  804d54:	10000b1e 	bne	r2,zero,804d84 <strcpy+0x84>
  804d58:	4013883a 	mov	r9,r8
  804d5c:	5011883a 	mov	r8,r10
  804d60:	39800015 	stw	r6,0(r7)
  804d64:	29400104 	addi	r5,r5,4
  804d68:	29800017 	ldw	r6,0(r5)
  804d6c:	39c00104 	addi	r7,r7,4
  804d70:	3245883a 	add	r2,r6,r9
  804d74:	0186303a 	nor	r3,zero,r6
  804d78:	10c4703a 	and	r2,r2,r3
  804d7c:	1204703a 	and	r2,r2,r8
  804d80:	103ff726 	beq	r2,zero,804d60 <strcpy+0x60>
  804d84:	3807883a 	mov	r3,r7
  804d88:	003fe106 	br	804d10 <strcpy+0x10>

00804d8c <strlen>:
  804d8c:	208000cc 	andi	r2,r4,3
  804d90:	2011883a 	mov	r8,r4
  804d94:	1000161e 	bne	r2,zero,804df0 <strlen+0x64>
  804d98:	20c00017 	ldw	r3,0(r4)
  804d9c:	017fbff4 	movhi	r5,65279
  804da0:	297fbfc4 	addi	r5,r5,-257
  804da4:	01e02074 	movhi	r7,32897
  804da8:	39e02004 	addi	r7,r7,-32640
  804dac:	1945883a 	add	r2,r3,r5
  804db0:	11c4703a 	and	r2,r2,r7
  804db4:	00c6303a 	nor	r3,zero,r3
  804db8:	1886703a 	and	r3,r3,r2
  804dbc:	18000c1e 	bne	r3,zero,804df0 <strlen+0x64>
  804dc0:	280d883a 	mov	r6,r5
  804dc4:	380b883a 	mov	r5,r7
  804dc8:	21000104 	addi	r4,r4,4
  804dcc:	20800017 	ldw	r2,0(r4)
  804dd0:	1187883a 	add	r3,r2,r6
  804dd4:	1946703a 	and	r3,r3,r5
  804dd8:	0084303a 	nor	r2,zero,r2
  804ddc:	10c4703a 	and	r2,r2,r3
  804de0:	103ff926 	beq	r2,zero,804dc8 <strlen+0x3c>
  804de4:	20800007 	ldb	r2,0(r4)
  804de8:	10000326 	beq	r2,zero,804df8 <strlen+0x6c>
  804dec:	21000044 	addi	r4,r4,1
  804df0:	20800007 	ldb	r2,0(r4)
  804df4:	103ffd1e 	bne	r2,zero,804dec <strlen+0x60>
  804df8:	2205c83a 	sub	r2,r4,r8
  804dfc:	f800283a 	ret

00804e00 <__sprint_r>:
  804e00:	30800217 	ldw	r2,8(r6)
  804e04:	defffe04 	addi	sp,sp,-8
  804e08:	dc000015 	stw	r16,0(sp)
  804e0c:	dfc00115 	stw	ra,4(sp)
  804e10:	3021883a 	mov	r16,r6
  804e14:	0007883a 	mov	r3,zero
  804e18:	1000061e 	bne	r2,zero,804e34 <__sprint_r+0x34>
  804e1c:	1805883a 	mov	r2,r3
  804e20:	30000115 	stw	zero,4(r6)
  804e24:	dfc00117 	ldw	ra,4(sp)
  804e28:	dc000017 	ldw	r16,0(sp)
  804e2c:	dec00204 	addi	sp,sp,8
  804e30:	f800283a 	ret
  804e34:	0808fd80 	call	808fd8 <__sfvwrite_r>
  804e38:	1007883a 	mov	r3,r2
  804e3c:	1805883a 	mov	r2,r3
  804e40:	80000115 	stw	zero,4(r16)
  804e44:	80000215 	stw	zero,8(r16)
  804e48:	dfc00117 	ldw	ra,4(sp)
  804e4c:	dc000017 	ldw	r16,0(sp)
  804e50:	dec00204 	addi	sp,sp,8
  804e54:	f800283a 	ret

00804e58 <___vfprintf_internal_r>:
  804e58:	defea404 	addi	sp,sp,-1392
  804e5c:	dd815815 	stw	r22,1376(sp)
  804e60:	dc015215 	stw	r16,1352(sp)
  804e64:	d9c15115 	stw	r7,1348(sp)
  804e68:	dfc15b15 	stw	ra,1388(sp)
  804e6c:	df015a15 	stw	fp,1384(sp)
  804e70:	ddc15915 	stw	r23,1380(sp)
  804e74:	dd415715 	stw	r21,1372(sp)
  804e78:	dd015615 	stw	r20,1368(sp)
  804e7c:	dcc15515 	stw	r19,1364(sp)
  804e80:	dc815415 	stw	r18,1360(sp)
  804e84:	dc415315 	stw	r17,1356(sp)
  804e88:	282d883a 	mov	r22,r5
  804e8c:	3021883a 	mov	r16,r6
  804e90:	d9014f15 	stw	r4,1340(sp)
  804e94:	08095fc0 	call	8095fc <_localeconv_r>
  804e98:	10800017 	ldw	r2,0(r2)
  804e9c:	d9c15117 	ldw	r7,1348(sp)
  804ea0:	d8814915 	stw	r2,1316(sp)
  804ea4:	d8814f17 	ldw	r2,1340(sp)
  804ea8:	10000226 	beq	r2,zero,804eb4 <___vfprintf_internal_r+0x5c>
  804eac:	10800e17 	ldw	r2,56(r2)
  804eb0:	10020d26 	beq	r2,zero,8056e8 <___vfprintf_internal_r+0x890>
  804eb4:	b080030b 	ldhu	r2,12(r22)
  804eb8:	1080020c 	andi	r2,r2,8
  804ebc:	10020e26 	beq	r2,zero,8056f8 <___vfprintf_internal_r+0x8a0>
  804ec0:	b0800417 	ldw	r2,16(r22)
  804ec4:	10020c26 	beq	r2,zero,8056f8 <___vfprintf_internal_r+0x8a0>
  804ec8:	b200030b 	ldhu	r8,12(r22)
  804ecc:	00800284 	movi	r2,10
  804ed0:	40c0068c 	andi	r3,r8,26
  804ed4:	18802f1e 	bne	r3,r2,804f94 <___vfprintf_internal_r+0x13c>
  804ed8:	b080038f 	ldh	r2,14(r22)
  804edc:	10002d16 	blt	r2,zero,804f94 <___vfprintf_internal_r+0x13c>
  804ee0:	b240038b 	ldhu	r9,14(r22)
  804ee4:	b2800717 	ldw	r10,28(r22)
  804ee8:	b2c00917 	ldw	r11,36(r22)
  804eec:	d9014f17 	ldw	r4,1340(sp)
  804ef0:	dc402904 	addi	r17,sp,164
  804ef4:	d8804004 	addi	r2,sp,256
  804ef8:	00c10004 	movi	r3,1024
  804efc:	423fff4c 	andi	r8,r8,65533
  804f00:	800d883a 	mov	r6,r16
  804f04:	880b883a 	mov	r5,r17
  804f08:	da002c0d 	sth	r8,176(sp)
  804f0c:	da402c8d 	sth	r9,178(sp)
  804f10:	da803015 	stw	r10,192(sp)
  804f14:	dac03215 	stw	r11,200(sp)
  804f18:	d8802d15 	stw	r2,180(sp)
  804f1c:	d8c02e15 	stw	r3,184(sp)
  804f20:	d8802915 	stw	r2,164(sp)
  804f24:	d8c02b15 	stw	r3,172(sp)
  804f28:	d8002f15 	stw	zero,188(sp)
  804f2c:	0804e580 	call	804e58 <___vfprintf_internal_r>
  804f30:	d8814b15 	stw	r2,1324(sp)
  804f34:	10000416 	blt	r2,zero,804f48 <___vfprintf_internal_r+0xf0>
  804f38:	d9014f17 	ldw	r4,1340(sp)
  804f3c:	880b883a 	mov	r5,r17
  804f40:	08086740 	call	808674 <_fflush_r>
  804f44:	1002321e 	bne	r2,zero,805810 <___vfprintf_internal_r+0x9b8>
  804f48:	d8802c0b 	ldhu	r2,176(sp)
  804f4c:	1080100c 	andi	r2,r2,64
  804f50:	10000326 	beq	r2,zero,804f60 <___vfprintf_internal_r+0x108>
  804f54:	b080030b 	ldhu	r2,12(r22)
  804f58:	10801014 	ori	r2,r2,64
  804f5c:	b080030d 	sth	r2,12(r22)
  804f60:	d8814b17 	ldw	r2,1324(sp)
  804f64:	dfc15b17 	ldw	ra,1388(sp)
  804f68:	df015a17 	ldw	fp,1384(sp)
  804f6c:	ddc15917 	ldw	r23,1380(sp)
  804f70:	dd815817 	ldw	r22,1376(sp)
  804f74:	dd415717 	ldw	r21,1372(sp)
  804f78:	dd015617 	ldw	r20,1368(sp)
  804f7c:	dcc15517 	ldw	r19,1364(sp)
  804f80:	dc815417 	ldw	r18,1360(sp)
  804f84:	dc415317 	ldw	r17,1356(sp)
  804f88:	dc015217 	ldw	r16,1352(sp)
  804f8c:	dec15c04 	addi	sp,sp,1392
  804f90:	f800283a 	ret
  804f94:	0005883a 	mov	r2,zero
  804f98:	0007883a 	mov	r3,zero
  804f9c:	dd401904 	addi	r21,sp,100
  804fa0:	d8814215 	stw	r2,1288(sp)
  804fa4:	802f883a 	mov	r23,r16
  804fa8:	d8c14315 	stw	r3,1292(sp)
  804fac:	d8014b15 	stw	zero,1324(sp)
  804fb0:	d8014815 	stw	zero,1312(sp)
  804fb4:	d8014415 	stw	zero,1296(sp)
  804fb8:	d8014715 	stw	zero,1308(sp)
  804fbc:	dd400c15 	stw	r21,48(sp)
  804fc0:	d8000e15 	stw	zero,56(sp)
  804fc4:	d8000d15 	stw	zero,52(sp)
  804fc8:	b8800007 	ldb	r2,0(r23)
  804fcc:	10001926 	beq	r2,zero,805034 <___vfprintf_internal_r+0x1dc>
  804fd0:	00c00944 	movi	r3,37
  804fd4:	10c01726 	beq	r2,r3,805034 <___vfprintf_internal_r+0x1dc>
  804fd8:	b821883a 	mov	r16,r23
  804fdc:	00000106 	br	804fe4 <___vfprintf_internal_r+0x18c>
  804fe0:	10c00326 	beq	r2,r3,804ff0 <___vfprintf_internal_r+0x198>
  804fe4:	84000044 	addi	r16,r16,1
  804fe8:	80800007 	ldb	r2,0(r16)
  804fec:	103ffc1e 	bne	r2,zero,804fe0 <___vfprintf_internal_r+0x188>
  804ff0:	85e7c83a 	sub	r19,r16,r23
  804ff4:	98000e26 	beq	r19,zero,805030 <___vfprintf_internal_r+0x1d8>
  804ff8:	dc800e17 	ldw	r18,56(sp)
  804ffc:	dc400d17 	ldw	r17,52(sp)
  805000:	008001c4 	movi	r2,7
  805004:	94e5883a 	add	r18,r18,r19
  805008:	8c400044 	addi	r17,r17,1
  80500c:	adc00015 	stw	r23,0(r21)
  805010:	dc800e15 	stw	r18,56(sp)
  805014:	acc00115 	stw	r19,4(r21)
  805018:	dc400d15 	stw	r17,52(sp)
  80501c:	14428b16 	blt	r2,r17,805a4c <___vfprintf_internal_r+0xbf4>
  805020:	ad400204 	addi	r21,r21,8
  805024:	d9014b17 	ldw	r4,1324(sp)
  805028:	24c9883a 	add	r4,r4,r19
  80502c:	d9014b15 	stw	r4,1324(sp)
  805030:	802f883a 	mov	r23,r16
  805034:	b8800007 	ldb	r2,0(r23)
  805038:	10013c26 	beq	r2,zero,80552c <___vfprintf_internal_r+0x6d4>
  80503c:	bdc00044 	addi	r23,r23,1
  805040:	d8000405 	stb	zero,16(sp)
  805044:	b8c00007 	ldb	r3,0(r23)
  805048:	04ffffc4 	movi	r19,-1
  80504c:	d8014c15 	stw	zero,1328(sp)
  805050:	d8014a15 	stw	zero,1320(sp)
  805054:	d8c14d15 	stw	r3,1332(sp)
  805058:	bdc00044 	addi	r23,r23,1
  80505c:	d9414d17 	ldw	r5,1332(sp)
  805060:	00801604 	movi	r2,88
  805064:	28fff804 	addi	r3,r5,-32
  805068:	10c06036 	bltu	r2,r3,8051ec <___vfprintf_internal_r+0x394>
  80506c:	18c5883a 	add	r2,r3,r3
  805070:	1085883a 	add	r2,r2,r2
  805074:	00c02034 	movhi	r3,128
  805078:	18d42204 	addi	r3,r3,20616
  80507c:	10c5883a 	add	r2,r2,r3
  805080:	11000017 	ldw	r4,0(r2)
  805084:	2000683a 	jmp	r4
  805088:	00805ffc 	xorhi	r2,zero,383
  80508c:	008051ec 	andhi	r2,zero,327
  805090:	008051ec 	andhi	r2,zero,327
  805094:	00805fe8 	cmpgeui	r2,zero,383
  805098:	008051ec 	andhi	r2,zero,327
  80509c:	008051ec 	andhi	r2,zero,327
  8050a0:	008051ec 	andhi	r2,zero,327
  8050a4:	008051ec 	andhi	r2,zero,327
  8050a8:	008051ec 	andhi	r2,zero,327
  8050ac:	008051ec 	andhi	r2,zero,327
  8050b0:	00805dc8 	cmpgei	r2,zero,375
  8050b4:	00805fd8 	cmpnei	r2,zero,383
  8050b8:	008051ec 	andhi	r2,zero,327
  8050bc:	00805de0 	cmpeqi	r2,zero,375
  8050c0:	00806080 	call	80608 <__reset-0x77f9f8>
  8050c4:	008051ec 	andhi	r2,zero,327
  8050c8:	0080606c 	andhi	r2,zero,385
  8050cc:	00806028 	cmpgeui	r2,zero,384
  8050d0:	00806028 	cmpgeui	r2,zero,384
  8050d4:	00806028 	cmpgeui	r2,zero,384
  8050d8:	00806028 	cmpgeui	r2,zero,384
  8050dc:	00806028 	cmpgeui	r2,zero,384
  8050e0:	00806028 	cmpgeui	r2,zero,384
  8050e4:	00806028 	cmpgeui	r2,zero,384
  8050e8:	00806028 	cmpgeui	r2,zero,384
  8050ec:	00806028 	cmpgeui	r2,zero,384
  8050f0:	008051ec 	andhi	r2,zero,327
  8050f4:	008051ec 	andhi	r2,zero,327
  8050f8:	008051ec 	andhi	r2,zero,327
  8050fc:	008051ec 	andhi	r2,zero,327
  805100:	008051ec 	andhi	r2,zero,327
  805104:	008051ec 	andhi	r2,zero,327
  805108:	008051ec 	andhi	r2,zero,327
  80510c:	008051ec 	andhi	r2,zero,327
  805110:	008051ec 	andhi	r2,zero,327
  805114:	008051ec 	andhi	r2,zero,327
  805118:	00805844 	movi	r2,353
  80511c:	00805eb0 	cmpltui	r2,zero,378
  805120:	008051ec 	andhi	r2,zero,327
  805124:	00805eb0 	cmpltui	r2,zero,378
  805128:	008051ec 	andhi	r2,zero,327
  80512c:	008051ec 	andhi	r2,zero,327
  805130:	008051ec 	andhi	r2,zero,327
  805134:	008051ec 	andhi	r2,zero,327
  805138:	00806014 	movui	r2,384
  80513c:	008051ec 	andhi	r2,zero,327
  805140:	008051ec 	andhi	r2,zero,327
  805144:	008058f8 	rdprs	r2,zero,355
  805148:	008051ec 	andhi	r2,zero,327
  80514c:	008051ec 	andhi	r2,zero,327
  805150:	008051ec 	andhi	r2,zero,327
  805154:	008051ec 	andhi	r2,zero,327
  805158:	008051ec 	andhi	r2,zero,327
  80515c:	00805944 	movi	r2,357
  805160:	008051ec 	andhi	r2,zero,327
  805164:	008051ec 	andhi	r2,zero,327
  805168:	00805f64 	muli	r2,zero,381
  80516c:	008051ec 	andhi	r2,zero,327
  805170:	008051ec 	andhi	r2,zero,327
  805174:	008051ec 	andhi	r2,zero,327
  805178:	008051ec 	andhi	r2,zero,327
  80517c:	008051ec 	andhi	r2,zero,327
  805180:	008051ec 	andhi	r2,zero,327
  805184:	008051ec 	andhi	r2,zero,327
  805188:	008051ec 	andhi	r2,zero,327
  80518c:	008051ec 	andhi	r2,zero,327
  805190:	008051ec 	andhi	r2,zero,327
  805194:	00805f38 	rdprs	r2,zero,380
  805198:	00805850 	cmplti	r2,zero,353
  80519c:	00805eb0 	cmpltui	r2,zero,378
  8051a0:	00805eb0 	cmpltui	r2,zero,378
  8051a4:	00805eb0 	cmpltui	r2,zero,378
  8051a8:	00805e9c 	xori	r2,zero,378
  8051ac:	00805850 	cmplti	r2,zero,353
  8051b0:	008051ec 	andhi	r2,zero,327
  8051b4:	008051ec 	andhi	r2,zero,327
  8051b8:	00805e24 	muli	r2,zero,376
  8051bc:	008051ec 	andhi	r2,zero,327
  8051c0:	00805df4 	movhi	r2,375
  8051c4:	00805904 	movi	r2,356
  8051c8:	00805e54 	movui	r2,377
  8051cc:	00805e40 	call	805e4 <__reset-0x77fa1c>
  8051d0:	008051ec 	andhi	r2,zero,327
  8051d4:	008060e8 	cmpgeui	r2,zero,387
  8051d8:	008051ec 	andhi	r2,zero,327
  8051dc:	00805950 	cmplti	r2,zero,357
  8051e0:	008051ec 	andhi	r2,zero,327
  8051e4:	008051ec 	andhi	r2,zero,327
  8051e8:	00805fc8 	cmpgei	r2,zero,383
  8051ec:	d9014d17 	ldw	r4,1332(sp)
  8051f0:	2000ce26 	beq	r4,zero,80552c <___vfprintf_internal_r+0x6d4>
  8051f4:	01400044 	movi	r5,1
  8051f8:	d9800f04 	addi	r6,sp,60
  8051fc:	d9c14015 	stw	r7,1280(sp)
  805200:	d9414515 	stw	r5,1300(sp)
  805204:	d9814115 	stw	r6,1284(sp)
  805208:	280f883a 	mov	r7,r5
  80520c:	d9000f05 	stb	r4,60(sp)
  805210:	d8000405 	stb	zero,16(sp)
  805214:	d8014615 	stw	zero,1304(sp)
  805218:	d8c14c17 	ldw	r3,1328(sp)
  80521c:	1880008c 	andi	r2,r3,2
  805220:	1005003a 	cmpeq	r2,r2,zero
  805224:	d8815015 	stw	r2,1344(sp)
  805228:	1000031e 	bne	r2,zero,805238 <___vfprintf_internal_r+0x3e0>
  80522c:	d9014517 	ldw	r4,1300(sp)
  805230:	21000084 	addi	r4,r4,2
  805234:	d9014515 	stw	r4,1300(sp)
  805238:	d9414c17 	ldw	r5,1328(sp)
  80523c:	2940210c 	andi	r5,r5,132
  805240:	d9414e15 	stw	r5,1336(sp)
  805244:	28002d1e 	bne	r5,zero,8052fc <___vfprintf_internal_r+0x4a4>
  805248:	d9814a17 	ldw	r6,1320(sp)
  80524c:	d8814517 	ldw	r2,1300(sp)
  805250:	30a1c83a 	sub	r16,r6,r2
  805254:	0400290e 	bge	zero,r16,8052fc <___vfprintf_internal_r+0x4a4>
  805258:	00800404 	movi	r2,16
  80525c:	14045e0e 	bge	r2,r16,8063d8 <___vfprintf_internal_r+0x1580>
  805260:	dc800e17 	ldw	r18,56(sp)
  805264:	dc400d17 	ldw	r17,52(sp)
  805268:	1027883a 	mov	r19,r2
  80526c:	07002074 	movhi	fp,129
  805270:	e7006e84 	addi	fp,fp,442
  805274:	050001c4 	movi	r20,7
  805278:	00000306 	br	805288 <___vfprintf_internal_r+0x430>
  80527c:	843ffc04 	addi	r16,r16,-16
  805280:	ad400204 	addi	r21,r21,8
  805284:	9c00130e 	bge	r19,r16,8052d4 <___vfprintf_internal_r+0x47c>
  805288:	94800404 	addi	r18,r18,16
  80528c:	8c400044 	addi	r17,r17,1
  805290:	af000015 	stw	fp,0(r21)
  805294:	acc00115 	stw	r19,4(r21)
  805298:	dc800e15 	stw	r18,56(sp)
  80529c:	dc400d15 	stw	r17,52(sp)
  8052a0:	a47ff60e 	bge	r20,r17,80527c <___vfprintf_internal_r+0x424>
  8052a4:	d9014f17 	ldw	r4,1340(sp)
  8052a8:	b00b883a 	mov	r5,r22
  8052ac:	d9800c04 	addi	r6,sp,48
  8052b0:	d9c15115 	stw	r7,1348(sp)
  8052b4:	0804e000 	call	804e00 <__sprint_r>
  8052b8:	d9c15117 	ldw	r7,1348(sp)
  8052bc:	10009e1e 	bne	r2,zero,805538 <___vfprintf_internal_r+0x6e0>
  8052c0:	843ffc04 	addi	r16,r16,-16
  8052c4:	dc800e17 	ldw	r18,56(sp)
  8052c8:	dc400d17 	ldw	r17,52(sp)
  8052cc:	dd401904 	addi	r21,sp,100
  8052d0:	9c3fed16 	blt	r19,r16,805288 <___vfprintf_internal_r+0x430>
  8052d4:	9425883a 	add	r18,r18,r16
  8052d8:	8c400044 	addi	r17,r17,1
  8052dc:	008001c4 	movi	r2,7
  8052e0:	af000015 	stw	fp,0(r21)
  8052e4:	ac000115 	stw	r16,4(r21)
  8052e8:	dc800e15 	stw	r18,56(sp)
  8052ec:	dc400d15 	stw	r17,52(sp)
  8052f0:	1441f516 	blt	r2,r17,805ac8 <___vfprintf_internal_r+0xc70>
  8052f4:	ad400204 	addi	r21,r21,8
  8052f8:	00000206 	br	805304 <___vfprintf_internal_r+0x4ac>
  8052fc:	dc800e17 	ldw	r18,56(sp)
  805300:	dc400d17 	ldw	r17,52(sp)
  805304:	d8800407 	ldb	r2,16(sp)
  805308:	10000b26 	beq	r2,zero,805338 <___vfprintf_internal_r+0x4e0>
  80530c:	00800044 	movi	r2,1
  805310:	94800044 	addi	r18,r18,1
  805314:	8c400044 	addi	r17,r17,1
  805318:	a8800115 	stw	r2,4(r21)
  80531c:	d8c00404 	addi	r3,sp,16
  805320:	008001c4 	movi	r2,7
  805324:	a8c00015 	stw	r3,0(r21)
  805328:	dc800e15 	stw	r18,56(sp)
  80532c:	dc400d15 	stw	r17,52(sp)
  805330:	1441da16 	blt	r2,r17,805a9c <___vfprintf_internal_r+0xc44>
  805334:	ad400204 	addi	r21,r21,8
  805338:	d9015017 	ldw	r4,1344(sp)
  80533c:	20000b1e 	bne	r4,zero,80536c <___vfprintf_internal_r+0x514>
  805340:	d8800444 	addi	r2,sp,17
  805344:	94800084 	addi	r18,r18,2
  805348:	8c400044 	addi	r17,r17,1
  80534c:	a8800015 	stw	r2,0(r21)
  805350:	00c00084 	movi	r3,2
  805354:	008001c4 	movi	r2,7
  805358:	a8c00115 	stw	r3,4(r21)
  80535c:	dc800e15 	stw	r18,56(sp)
  805360:	dc400d15 	stw	r17,52(sp)
  805364:	1441c216 	blt	r2,r17,805a70 <___vfprintf_internal_r+0xc18>
  805368:	ad400204 	addi	r21,r21,8
  80536c:	d9414e17 	ldw	r5,1336(sp)
  805370:	00802004 	movi	r2,128
  805374:	2880b126 	beq	r5,r2,80563c <___vfprintf_internal_r+0x7e4>
  805378:	d8c14617 	ldw	r3,1304(sp)
  80537c:	19e1c83a 	sub	r16,r3,r7
  805380:	0400260e 	bge	zero,r16,80541c <___vfprintf_internal_r+0x5c4>
  805384:	00800404 	movi	r2,16
  805388:	1403cf0e 	bge	r2,r16,8062c8 <___vfprintf_internal_r+0x1470>
  80538c:	1027883a 	mov	r19,r2
  805390:	07002074 	movhi	fp,129
  805394:	e7006a84 	addi	fp,fp,426
  805398:	050001c4 	movi	r20,7
  80539c:	00000306 	br	8053ac <___vfprintf_internal_r+0x554>
  8053a0:	843ffc04 	addi	r16,r16,-16
  8053a4:	ad400204 	addi	r21,r21,8
  8053a8:	9c00130e 	bge	r19,r16,8053f8 <___vfprintf_internal_r+0x5a0>
  8053ac:	94800404 	addi	r18,r18,16
  8053b0:	8c400044 	addi	r17,r17,1
  8053b4:	af000015 	stw	fp,0(r21)
  8053b8:	acc00115 	stw	r19,4(r21)
  8053bc:	dc800e15 	stw	r18,56(sp)
  8053c0:	dc400d15 	stw	r17,52(sp)
  8053c4:	a47ff60e 	bge	r20,r17,8053a0 <___vfprintf_internal_r+0x548>
  8053c8:	d9014f17 	ldw	r4,1340(sp)
  8053cc:	b00b883a 	mov	r5,r22
  8053d0:	d9800c04 	addi	r6,sp,48
  8053d4:	d9c15115 	stw	r7,1348(sp)
  8053d8:	0804e000 	call	804e00 <__sprint_r>
  8053dc:	d9c15117 	ldw	r7,1348(sp)
  8053e0:	1000551e 	bne	r2,zero,805538 <___vfprintf_internal_r+0x6e0>
  8053e4:	843ffc04 	addi	r16,r16,-16
  8053e8:	dc800e17 	ldw	r18,56(sp)
  8053ec:	dc400d17 	ldw	r17,52(sp)
  8053f0:	dd401904 	addi	r21,sp,100
  8053f4:	9c3fed16 	blt	r19,r16,8053ac <___vfprintf_internal_r+0x554>
  8053f8:	9425883a 	add	r18,r18,r16
  8053fc:	8c400044 	addi	r17,r17,1
  805400:	008001c4 	movi	r2,7
  805404:	af000015 	stw	fp,0(r21)
  805408:	ac000115 	stw	r16,4(r21)
  80540c:	dc800e15 	stw	r18,56(sp)
  805410:	dc400d15 	stw	r17,52(sp)
  805414:	14418216 	blt	r2,r17,805a20 <___vfprintf_internal_r+0xbc8>
  805418:	ad400204 	addi	r21,r21,8
  80541c:	d9014c17 	ldw	r4,1328(sp)
  805420:	2080400c 	andi	r2,r4,256
  805424:	10004a1e 	bne	r2,zero,805550 <___vfprintf_internal_r+0x6f8>
  805428:	d9414117 	ldw	r5,1284(sp)
  80542c:	91e5883a 	add	r18,r18,r7
  805430:	8c400044 	addi	r17,r17,1
  805434:	008001c4 	movi	r2,7
  805438:	a9400015 	stw	r5,0(r21)
  80543c:	a9c00115 	stw	r7,4(r21)
  805440:	dc800e15 	stw	r18,56(sp)
  805444:	dc400d15 	stw	r17,52(sp)
  805448:	14416716 	blt	r2,r17,8059e8 <___vfprintf_internal_r+0xb90>
  80544c:	a8c00204 	addi	r3,r21,8
  805450:	d9814c17 	ldw	r6,1328(sp)
  805454:	3080010c 	andi	r2,r6,4
  805458:	10002826 	beq	r2,zero,8054fc <___vfprintf_internal_r+0x6a4>
  80545c:	d8814a17 	ldw	r2,1320(sp)
  805460:	d9014517 	ldw	r4,1300(sp)
  805464:	1121c83a 	sub	r16,r2,r4
  805468:	0400240e 	bge	zero,r16,8054fc <___vfprintf_internal_r+0x6a4>
  80546c:	00800404 	movi	r2,16
  805470:	1404550e 	bge	r2,r16,8065c8 <___vfprintf_internal_r+0x1770>
  805474:	dc400d17 	ldw	r17,52(sp)
  805478:	1027883a 	mov	r19,r2
  80547c:	07002074 	movhi	fp,129
  805480:	e7006e84 	addi	fp,fp,442
  805484:	050001c4 	movi	r20,7
  805488:	00000306 	br	805498 <___vfprintf_internal_r+0x640>
  80548c:	843ffc04 	addi	r16,r16,-16
  805490:	18c00204 	addi	r3,r3,8
  805494:	9c00110e 	bge	r19,r16,8054dc <___vfprintf_internal_r+0x684>
  805498:	94800404 	addi	r18,r18,16
  80549c:	8c400044 	addi	r17,r17,1
  8054a0:	1f000015 	stw	fp,0(r3)
  8054a4:	1cc00115 	stw	r19,4(r3)
  8054a8:	dc800e15 	stw	r18,56(sp)
  8054ac:	dc400d15 	stw	r17,52(sp)
  8054b0:	a47ff60e 	bge	r20,r17,80548c <___vfprintf_internal_r+0x634>
  8054b4:	d9014f17 	ldw	r4,1340(sp)
  8054b8:	b00b883a 	mov	r5,r22
  8054bc:	d9800c04 	addi	r6,sp,48
  8054c0:	0804e000 	call	804e00 <__sprint_r>
  8054c4:	10001c1e 	bne	r2,zero,805538 <___vfprintf_internal_r+0x6e0>
  8054c8:	843ffc04 	addi	r16,r16,-16
  8054cc:	dc800e17 	ldw	r18,56(sp)
  8054d0:	dc400d17 	ldw	r17,52(sp)
  8054d4:	d8c01904 	addi	r3,sp,100
  8054d8:	9c3fef16 	blt	r19,r16,805498 <___vfprintf_internal_r+0x640>
  8054dc:	9425883a 	add	r18,r18,r16
  8054e0:	8c400044 	addi	r17,r17,1
  8054e4:	008001c4 	movi	r2,7
  8054e8:	1f000015 	stw	fp,0(r3)
  8054ec:	1c000115 	stw	r16,4(r3)
  8054f0:	dc800e15 	stw	r18,56(sp)
  8054f4:	dc400d15 	stw	r17,52(sp)
  8054f8:	1440cb16 	blt	r2,r17,805828 <___vfprintf_internal_r+0x9d0>
  8054fc:	d8814a17 	ldw	r2,1320(sp)
  805500:	d9414517 	ldw	r5,1300(sp)
  805504:	1140010e 	bge	r2,r5,80550c <___vfprintf_internal_r+0x6b4>
  805508:	2805883a 	mov	r2,r5
  80550c:	d9814b17 	ldw	r6,1324(sp)
  805510:	308d883a 	add	r6,r6,r2
  805514:	d9814b15 	stw	r6,1324(sp)
  805518:	90013b1e 	bne	r18,zero,805a08 <___vfprintf_internal_r+0xbb0>
  80551c:	d9c14017 	ldw	r7,1280(sp)
  805520:	dd401904 	addi	r21,sp,100
  805524:	d8000d15 	stw	zero,52(sp)
  805528:	003ea706 	br	804fc8 <___vfprintf_internal_r+0x170>
  80552c:	d8800e17 	ldw	r2,56(sp)
  805530:	1005451e 	bne	r2,zero,806a48 <___vfprintf_internal_r+0x1bf0>
  805534:	d8000d15 	stw	zero,52(sp)
  805538:	b080030b 	ldhu	r2,12(r22)
  80553c:	1080100c 	andi	r2,r2,64
  805540:	103e8726 	beq	r2,zero,804f60 <___vfprintf_internal_r+0x108>
  805544:	00bfffc4 	movi	r2,-1
  805548:	d8814b15 	stw	r2,1324(sp)
  80554c:	003e8406 	br	804f60 <___vfprintf_internal_r+0x108>
  805550:	d9814d17 	ldw	r6,1332(sp)
  805554:	00801944 	movi	r2,101
  805558:	11806e16 	blt	r2,r6,805714 <___vfprintf_internal_r+0x8bc>
  80555c:	d9414717 	ldw	r5,1308(sp)
  805560:	00c00044 	movi	r3,1
  805564:	1943490e 	bge	r3,r5,80628c <___vfprintf_internal_r+0x1434>
  805568:	d8814117 	ldw	r2,1284(sp)
  80556c:	94800044 	addi	r18,r18,1
  805570:	8c400044 	addi	r17,r17,1
  805574:	a8800015 	stw	r2,0(r21)
  805578:	008001c4 	movi	r2,7
  80557c:	a8c00115 	stw	r3,4(r21)
  805580:	dc800e15 	stw	r18,56(sp)
  805584:	dc400d15 	stw	r17,52(sp)
  805588:	1441ca16 	blt	r2,r17,805cb4 <___vfprintf_internal_r+0xe5c>
  80558c:	a8c00204 	addi	r3,r21,8
  805590:	d9014917 	ldw	r4,1316(sp)
  805594:	00800044 	movi	r2,1
  805598:	94800044 	addi	r18,r18,1
  80559c:	8c400044 	addi	r17,r17,1
  8055a0:	18800115 	stw	r2,4(r3)
  8055a4:	008001c4 	movi	r2,7
  8055a8:	19000015 	stw	r4,0(r3)
  8055ac:	dc800e15 	stw	r18,56(sp)
  8055b0:	dc400d15 	stw	r17,52(sp)
  8055b4:	1441b616 	blt	r2,r17,805c90 <___vfprintf_internal_r+0xe38>
  8055b8:	1cc00204 	addi	r19,r3,8
  8055bc:	d9014217 	ldw	r4,1288(sp)
  8055c0:	d9414317 	ldw	r5,1292(sp)
  8055c4:	000d883a 	mov	r6,zero
  8055c8:	000f883a 	mov	r7,zero
  8055cc:	080d2b40 	call	80d2b4 <__nedf2>
  8055d0:	10017426 	beq	r2,zero,805ba4 <___vfprintf_internal_r+0xd4c>
  8055d4:	d9414717 	ldw	r5,1308(sp)
  8055d8:	d9814117 	ldw	r6,1284(sp)
  8055dc:	8c400044 	addi	r17,r17,1
  8055e0:	2c85883a 	add	r2,r5,r18
  8055e4:	14bfffc4 	addi	r18,r2,-1
  8055e8:	28bfffc4 	addi	r2,r5,-1
  8055ec:	30c00044 	addi	r3,r6,1
  8055f0:	98800115 	stw	r2,4(r19)
  8055f4:	008001c4 	movi	r2,7
  8055f8:	98c00015 	stw	r3,0(r19)
  8055fc:	dc800e15 	stw	r18,56(sp)
  805600:	dc400d15 	stw	r17,52(sp)
  805604:	14418e16 	blt	r2,r17,805c40 <___vfprintf_internal_r+0xde8>
  805608:	9cc00204 	addi	r19,r19,8
  80560c:	d9414817 	ldw	r5,1312(sp)
  805610:	d8800804 	addi	r2,sp,32
  805614:	8c400044 	addi	r17,r17,1
  805618:	9165883a 	add	r18,r18,r5
  80561c:	98800015 	stw	r2,0(r19)
  805620:	008001c4 	movi	r2,7
  805624:	99400115 	stw	r5,4(r19)
  805628:	dc800e15 	stw	r18,56(sp)
  80562c:	dc400d15 	stw	r17,52(sp)
  805630:	1440ed16 	blt	r2,r17,8059e8 <___vfprintf_internal_r+0xb90>
  805634:	98c00204 	addi	r3,r19,8
  805638:	003f8506 	br	805450 <___vfprintf_internal_r+0x5f8>
  80563c:	d9814a17 	ldw	r6,1320(sp)
  805640:	d8814517 	ldw	r2,1300(sp)
  805644:	30a1c83a 	sub	r16,r6,r2
  805648:	043f4b0e 	bge	zero,r16,805378 <___vfprintf_internal_r+0x520>
  80564c:	00800404 	movi	r2,16
  805650:	14043a0e 	bge	r2,r16,80673c <___vfprintf_internal_r+0x18e4>
  805654:	1027883a 	mov	r19,r2
  805658:	07002074 	movhi	fp,129
  80565c:	e7006a84 	addi	fp,fp,426
  805660:	050001c4 	movi	r20,7
  805664:	00000306 	br	805674 <___vfprintf_internal_r+0x81c>
  805668:	843ffc04 	addi	r16,r16,-16
  80566c:	ad400204 	addi	r21,r21,8
  805670:	9c00130e 	bge	r19,r16,8056c0 <___vfprintf_internal_r+0x868>
  805674:	94800404 	addi	r18,r18,16
  805678:	8c400044 	addi	r17,r17,1
  80567c:	af000015 	stw	fp,0(r21)
  805680:	acc00115 	stw	r19,4(r21)
  805684:	dc800e15 	stw	r18,56(sp)
  805688:	dc400d15 	stw	r17,52(sp)
  80568c:	a47ff60e 	bge	r20,r17,805668 <___vfprintf_internal_r+0x810>
  805690:	d9014f17 	ldw	r4,1340(sp)
  805694:	b00b883a 	mov	r5,r22
  805698:	d9800c04 	addi	r6,sp,48
  80569c:	d9c15115 	stw	r7,1348(sp)
  8056a0:	0804e000 	call	804e00 <__sprint_r>
  8056a4:	d9c15117 	ldw	r7,1348(sp)
  8056a8:	103fa31e 	bne	r2,zero,805538 <___vfprintf_internal_r+0x6e0>
  8056ac:	843ffc04 	addi	r16,r16,-16
  8056b0:	dc800e17 	ldw	r18,56(sp)
  8056b4:	dc400d17 	ldw	r17,52(sp)
  8056b8:	dd401904 	addi	r21,sp,100
  8056bc:	9c3fed16 	blt	r19,r16,805674 <___vfprintf_internal_r+0x81c>
  8056c0:	9425883a 	add	r18,r18,r16
  8056c4:	8c400044 	addi	r17,r17,1
  8056c8:	008001c4 	movi	r2,7
  8056cc:	af000015 	stw	fp,0(r21)
  8056d0:	ac000115 	stw	r16,4(r21)
  8056d4:	dc800e15 	stw	r18,56(sp)
  8056d8:	dc400d15 	stw	r17,52(sp)
  8056dc:	14416116 	blt	r2,r17,805c64 <___vfprintf_internal_r+0xe0c>
  8056e0:	ad400204 	addi	r21,r21,8
  8056e4:	003f2406 	br	805378 <___vfprintf_internal_r+0x520>
  8056e8:	d9014f17 	ldw	r4,1340(sp)
  8056ec:	080890c0 	call	80890c <__sinit>
  8056f0:	d9c15117 	ldw	r7,1348(sp)
  8056f4:	003def06 	br	804eb4 <___vfprintf_internal_r+0x5c>
  8056f8:	d9014f17 	ldw	r4,1340(sp)
  8056fc:	b00b883a 	mov	r5,r22
  805700:	d9c15115 	stw	r7,1348(sp)
  805704:	0806d400 	call	806d40 <__swsetup_r>
  805708:	d9c15117 	ldw	r7,1348(sp)
  80570c:	103dee26 	beq	r2,zero,804ec8 <___vfprintf_internal_r+0x70>
  805710:	003f8c06 	br	805544 <___vfprintf_internal_r+0x6ec>
  805714:	d9014217 	ldw	r4,1288(sp)
  805718:	d9414317 	ldw	r5,1292(sp)
  80571c:	000d883a 	mov	r6,zero
  805720:	000f883a 	mov	r7,zero
  805724:	080d22c0 	call	80d22c <__eqdf2>
  805728:	1000f21e 	bne	r2,zero,805af4 <___vfprintf_internal_r+0xc9c>
  80572c:	00802074 	movhi	r2,129
  805730:	10bfba04 	addi	r2,r2,-280
  805734:	94800044 	addi	r18,r18,1
  805738:	8c400044 	addi	r17,r17,1
  80573c:	a8800015 	stw	r2,0(r21)
  805740:	00c00044 	movi	r3,1
  805744:	008001c4 	movi	r2,7
  805748:	a8c00115 	stw	r3,4(r21)
  80574c:	dc800e15 	stw	r18,56(sp)
  805750:	dc400d15 	stw	r17,52(sp)
  805754:	14430016 	blt	r2,r17,806358 <___vfprintf_internal_r+0x1500>
  805758:	a8c00204 	addi	r3,r21,8
  80575c:	d8800517 	ldw	r2,20(sp)
  805760:	d9014717 	ldw	r4,1308(sp)
  805764:	11015c0e 	bge	r2,r4,805cd8 <___vfprintf_internal_r+0xe80>
  805768:	dc400d17 	ldw	r17,52(sp)
  80576c:	d9814917 	ldw	r6,1316(sp)
  805770:	00800044 	movi	r2,1
  805774:	94800044 	addi	r18,r18,1
  805778:	8c400044 	addi	r17,r17,1
  80577c:	18800115 	stw	r2,4(r3)
  805780:	008001c4 	movi	r2,7
  805784:	19800015 	stw	r6,0(r3)
  805788:	dc800e15 	stw	r18,56(sp)
  80578c:	dc400d15 	stw	r17,52(sp)
  805790:	14431616 	blt	r2,r17,8063ec <___vfprintf_internal_r+0x1594>
  805794:	18c00204 	addi	r3,r3,8
  805798:	d8814717 	ldw	r2,1308(sp)
  80579c:	143fffc4 	addi	r16,r2,-1
  8057a0:	043f2b0e 	bge	zero,r16,805450 <___vfprintf_internal_r+0x5f8>
  8057a4:	00800404 	movi	r2,16
  8057a8:	1402a80e 	bge	r2,r16,80624c <___vfprintf_internal_r+0x13f4>
  8057ac:	dc400d17 	ldw	r17,52(sp)
  8057b0:	1027883a 	mov	r19,r2
  8057b4:	07002074 	movhi	fp,129
  8057b8:	e7006a84 	addi	fp,fp,426
  8057bc:	050001c4 	movi	r20,7
  8057c0:	00000306 	br	8057d0 <___vfprintf_internal_r+0x978>
  8057c4:	18c00204 	addi	r3,r3,8
  8057c8:	843ffc04 	addi	r16,r16,-16
  8057cc:	9c02a20e 	bge	r19,r16,806258 <___vfprintf_internal_r+0x1400>
  8057d0:	94800404 	addi	r18,r18,16
  8057d4:	8c400044 	addi	r17,r17,1
  8057d8:	1f000015 	stw	fp,0(r3)
  8057dc:	1cc00115 	stw	r19,4(r3)
  8057e0:	dc800e15 	stw	r18,56(sp)
  8057e4:	dc400d15 	stw	r17,52(sp)
  8057e8:	a47ff60e 	bge	r20,r17,8057c4 <___vfprintf_internal_r+0x96c>
  8057ec:	d9014f17 	ldw	r4,1340(sp)
  8057f0:	b00b883a 	mov	r5,r22
  8057f4:	d9800c04 	addi	r6,sp,48
  8057f8:	0804e000 	call	804e00 <__sprint_r>
  8057fc:	103f4e1e 	bne	r2,zero,805538 <___vfprintf_internal_r+0x6e0>
  805800:	dc800e17 	ldw	r18,56(sp)
  805804:	dc400d17 	ldw	r17,52(sp)
  805808:	d8c01904 	addi	r3,sp,100
  80580c:	003fee06 	br	8057c8 <___vfprintf_internal_r+0x970>
  805810:	d8802c0b 	ldhu	r2,176(sp)
  805814:	00ffffc4 	movi	r3,-1
  805818:	d8c14b15 	stw	r3,1324(sp)
  80581c:	1080100c 	andi	r2,r2,64
  805820:	103dcc1e 	bne	r2,zero,804f54 <___vfprintf_internal_r+0xfc>
  805824:	003dce06 	br	804f60 <___vfprintf_internal_r+0x108>
  805828:	d9014f17 	ldw	r4,1340(sp)
  80582c:	b00b883a 	mov	r5,r22
  805830:	d9800c04 	addi	r6,sp,48
  805834:	0804e000 	call	804e00 <__sprint_r>
  805838:	103f3f1e 	bne	r2,zero,805538 <___vfprintf_internal_r+0x6e0>
  80583c:	dc800e17 	ldw	r18,56(sp)
